Archive member included to satisfy reference by file (symbol)

/usr/lib/gcc/arm-none-eabi/5.4.1/armv6-m/libgcc.a(_udivsi3.o)
                              conversion.o (__aeabi_uidiv)
/usr/lib/gcc/arm-none-eabi/5.4.1/armv6-m/libgcc.a(_dvmd_tls.o)
                              /usr/lib/gcc/arm-none-eabi/5.4.1/armv6-m/libgcc.a(_udivsi3.o) (__aeabi_idiv0)
/usr/lib/gcc/arm-none-eabi/5.4.1/armv6-m/libgcc.a(_arm_cmpdf2.o)
                              uart0.o (__aeabi_dcmplt)
/usr/lib/gcc/arm-none-eabi/5.4.1/armv6-m/libgcc.a(floatunsisf.o)
                              time_profiler.o (__aeabi_ui2f)
/usr/lib/gcc/arm-none-eabi/5.4.1/armv6-m/libgcc.a(divdf3.o)
                              time_profiler.o (__aeabi_ddiv)
/usr/lib/gcc/arm-none-eabi/5.4.1/armv6-m/libgcc.a(eqdf2.o)
                              /usr/lib/gcc/arm-none-eabi/5.4.1/armv6-m/libgcc.a(_arm_cmpdf2.o) (__eqdf2)
/usr/lib/gcc/arm-none-eabi/5.4.1/armv6-m/libgcc.a(gedf2.o)
                              /usr/lib/gcc/arm-none-eabi/5.4.1/armv6-m/libgcc.a(_arm_cmpdf2.o) (__gedf2)
/usr/lib/gcc/arm-none-eabi/5.4.1/armv6-m/libgcc.a(ledf2.o)
                              /usr/lib/gcc/arm-none-eabi/5.4.1/armv6-m/libgcc.a(_arm_cmpdf2.o) (__ledf2)
/usr/lib/gcc/arm-none-eabi/5.4.1/armv6-m/libgcc.a(muldf3.o)
                              time_profiler.o (__aeabi_dmul)
/usr/lib/gcc/arm-none-eabi/5.4.1/armv6-m/libgcc.a(extendsfdf2.o)
                              time_profiler.o (__aeabi_f2d)
/usr/lib/gcc/arm-none-eabi/5.4.1/armv6-m/libgcc.a(truncdfsf2.o)
                              time_profiler.o (__aeabi_d2f)
/usr/lib/gcc/arm-none-eabi/5.4.1/armv6-m/libgcc.a(_clzsi2.o)
                              /usr/lib/gcc/arm-none-eabi/5.4.1/armv6-m/libgcc.a(floatunsisf.o) (__clzsi2)
/usr/lib/gcc/arm-none-eabi/5.4.1/../../../arm-none-eabi/lib/armv6-m/libg.a(lib_a-atexit.o)
                              /usr/lib/gcc/arm-none-eabi/5.4.1/../../../arm-none-eabi/lib/armv6-m/crt0.o (atexit)
/usr/lib/gcc/arm-none-eabi/5.4.1/../../../arm-none-eabi/lib/armv6-m/libg.a(lib_a-ctime.o)
                              timestamp.o (ctime)
/usr/lib/gcc/arm-none-eabi/5.4.1/../../../arm-none-eabi/lib/armv6-m/libg.a(lib_a-exit.o)
                              /usr/lib/gcc/arm-none-eabi/5.4.1/../../../arm-none-eabi/lib/armv6-m/crt0.o (exit)
/usr/lib/gcc/arm-none-eabi/5.4.1/../../../arm-none-eabi/lib/armv6-m/libg.a(lib_a-fini.o)
                              /usr/lib/gcc/arm-none-eabi/5.4.1/../../../arm-none-eabi/lib/armv6-m/crt0.o (__libc_fini_array)
/usr/lib/gcc/arm-none-eabi/5.4.1/../../../arm-none-eabi/lib/armv6-m/libg.a(lib_a-impure.o)
                              /usr/lib/gcc/arm-none-eabi/5.4.1/../../../arm-none-eabi/lib/armv6-m/libg.a(lib_a-exit.o) (_global_impure_ptr)
/usr/lib/gcc/arm-none-eabi/5.4.1/../../../arm-none-eabi/lib/armv6-m/libg.a(lib_a-init.o)
                              /usr/lib/gcc/arm-none-eabi/5.4.1/../../../arm-none-eabi/lib/armv6-m/crt0.o (__libc_init_array)
/usr/lib/gcc/arm-none-eabi/5.4.1/../../../arm-none-eabi/lib/armv6-m/libg.a(lib_a-lcltime.o)
                              /usr/lib/gcc/arm-none-eabi/5.4.1/../../../arm-none-eabi/lib/armv6-m/libg.a(lib_a-ctime.o) (localtime)
/usr/lib/gcc/arm-none-eabi/5.4.1/../../../arm-none-eabi/lib/armv6-m/libg.a(lib_a-lcltime_r.o)
                              /usr/lib/gcc/arm-none-eabi/5.4.1/../../../arm-none-eabi/lib/armv6-m/libg.a(lib_a-lcltime.o) (localtime_r)
/usr/lib/gcc/arm-none-eabi/5.4.1/../../../arm-none-eabi/lib/armv6-m/libg.a(lib_a-malloc.o)
                              memory.o (malloc)
/usr/lib/gcc/arm-none-eabi/5.4.1/../../../arm-none-eabi/lib/armv6-m/libg.a(lib_a-mallocr.o)
                              /usr/lib/gcc/arm-none-eabi/5.4.1/../../../arm-none-eabi/lib/armv6-m/libg.a(lib_a-malloc.o) (_malloc_r)
/usr/lib/gcc/arm-none-eabi/5.4.1/../../../arm-none-eabi/lib/armv6-m/libg.a(lib_a-memcpy-stub.o)
                              project3.o (memcpy)
/usr/lib/gcc/arm-none-eabi/5.4.1/../../../arm-none-eabi/lib/armv6-m/libg.a(lib_a-memmove.o)
                              logger_helper.o (memmove)
/usr/lib/gcc/arm-none-eabi/5.4.1/../../../arm-none-eabi/lib/armv6-m/libg.a(lib_a-memset.o)
                              /usr/lib/gcc/arm-none-eabi/5.4.1/../../../arm-none-eabi/lib/armv6-m/crt0.o (memset)
/usr/lib/gcc/arm-none-eabi/5.4.1/../../../arm-none-eabi/lib/armv6-m/libg.a(lib_a-mlock.o)
                              /usr/lib/gcc/arm-none-eabi/5.4.1/../../../arm-none-eabi/lib/armv6-m/libg.a(lib_a-mallocr.o) (__malloc_lock)
/usr/lib/gcc/arm-none-eabi/5.4.1/../../../arm-none-eabi/lib/armv6-m/libg.a(lib_a-month_lengths.o)
                              /usr/lib/gcc/arm-none-eabi/5.4.1/../../../arm-none-eabi/lib/armv6-m/libg.a(lib_a-lcltime_r.o) (__month_lengths)
/usr/lib/gcc/arm-none-eabi/5.4.1/../../../arm-none-eabi/lib/armv6-m/libg.a(lib_a-sbrkr.o)
                              /usr/lib/gcc/arm-none-eabi/5.4.1/../../../arm-none-eabi/lib/armv6-m/libg.a(lib_a-mallocr.o) (_sbrk_r)
/usr/lib/gcc/arm-none-eabi/5.4.1/../../../arm-none-eabi/lib/armv6-m/libg.a(lib_a-sprintf.o)
                              uart0.o (sprintf)
/usr/lib/gcc/arm-none-eabi/5.4.1/../../../arm-none-eabi/lib/armv6-m/libg.a(lib_a-svfprintf.o)
                              /usr/lib/gcc/arm-none-eabi/5.4.1/../../../arm-none-eabi/lib/armv6-m/libg.a(lib_a-sprintf.o) (_svfprintf_r)
/usr/lib/gcc/arm-none-eabi/5.4.1/../../../arm-none-eabi/lib/armv6-m/libg.a(lib_a-tzcalc_limits.o)
                              /usr/lib/gcc/arm-none-eabi/5.4.1/../../../arm-none-eabi/lib/armv6-m/libg.a(lib_a-lcltime_r.o) (__tzcalc_limits)
/usr/lib/gcc/arm-none-eabi/5.4.1/../../../arm-none-eabi/lib/armv6-m/libg.a(lib_a-tzlock.o)
                              /usr/lib/gcc/arm-none-eabi/5.4.1/../../../arm-none-eabi/lib/armv6-m/libg.a(lib_a-lcltime_r.o) (__tz_lock)
/usr/lib/gcc/arm-none-eabi/5.4.1/../../../arm-none-eabi/lib/armv6-m/libg.a(lib_a-tzset.o)
                              /usr/lib/gcc/arm-none-eabi/5.4.1/../../../arm-none-eabi/lib/armv6-m/libg.a(lib_a-lcltime_r.o) (_tzset_unlocked)
/usr/lib/gcc/arm-none-eabi/5.4.1/../../../arm-none-eabi/lib/armv6-m/libg.a(lib_a-tzset_r.o)
                              /usr/lib/gcc/arm-none-eabi/5.4.1/../../../arm-none-eabi/lib/armv6-m/libg.a(lib_a-tzset.o) (_tzset_unlocked_r)
/usr/lib/gcc/arm-none-eabi/5.4.1/../../../arm-none-eabi/lib/armv6-m/libg.a(lib_a-tzvars.o)
                              /usr/lib/gcc/arm-none-eabi/5.4.1/../../../arm-none-eabi/lib/armv6-m/libg.a(lib_a-tzset_r.o) (_timezone)
/usr/lib/gcc/arm-none-eabi/5.4.1/../../../arm-none-eabi/lib/armv6-m/libg.a(lib_a-vsnprintf.o)
                              logger.o (vsnprintf)
/usr/lib/gcc/arm-none-eabi/5.4.1/../../../arm-none-eabi/lib/armv6-m/libg.a(lib_a-__atexit.o)
                              /usr/lib/gcc/arm-none-eabi/5.4.1/../../../arm-none-eabi/lib/armv6-m/libg.a(lib_a-atexit.o) (__register_exitproc)
/usr/lib/gcc/arm-none-eabi/5.4.1/../../../arm-none-eabi/lib/armv6-m/libg.a(lib_a-__call_atexit.o)
                              /usr/lib/gcc/arm-none-eabi/5.4.1/../../../arm-none-eabi/lib/armv6-m/libg.a(lib_a-exit.o) (__call_exitprocs)
/usr/lib/gcc/arm-none-eabi/5.4.1/../../../arm-none-eabi/lib/armv6-m/libg.a(lib_a-asctime.o)
                              /usr/lib/gcc/arm-none-eabi/5.4.1/../../../arm-none-eabi/lib/armv6-m/libg.a(lib_a-ctime.o) (asctime)
/usr/lib/gcc/arm-none-eabi/5.4.1/../../../arm-none-eabi/lib/armv6-m/libg.a(lib_a-asctime_r.o)
                              /usr/lib/gcc/arm-none-eabi/5.4.1/../../../arm-none-eabi/lib/armv6-m/libg.a(lib_a-asctime.o) (asctime_r)
/usr/lib/gcc/arm-none-eabi/5.4.1/../../../arm-none-eabi/lib/armv6-m/libg.a(lib_a-dtoa.o)
                              /usr/lib/gcc/arm-none-eabi/5.4.1/../../../arm-none-eabi/lib/armv6-m/libg.a(lib_a-svfprintf.o) (_dtoa_r)
/usr/lib/gcc/arm-none-eabi/5.4.1/../../../arm-none-eabi/lib/armv6-m/libg.a(lib_a-freer.o)
                              /usr/lib/gcc/arm-none-eabi/5.4.1/../../../arm-none-eabi/lib/armv6-m/libg.a(lib_a-malloc.o) (_free_r)
/usr/lib/gcc/arm-none-eabi/5.4.1/../../../arm-none-eabi/lib/armv6-m/libg.a(lib_a-getenv_r.o)
                              /usr/lib/gcc/arm-none-eabi/5.4.1/../../../arm-none-eabi/lib/armv6-m/libg.a(lib_a-tzset_r.o) (_getenv_r)
/usr/lib/gcc/arm-none-eabi/5.4.1/../../../arm-none-eabi/lib/armv6-m/libg.a(lib_a-gettzinfo.o)
                              /usr/lib/gcc/arm-none-eabi/5.4.1/../../../arm-none-eabi/lib/armv6-m/libg.a(lib_a-lcltime_r.o) (__gettzinfo)
/usr/lib/gcc/arm-none-eabi/5.4.1/../../../arm-none-eabi/lib/armv6-m/libg.a(lib_a-gmtime_r.o)
                              /usr/lib/gcc/arm-none-eabi/5.4.1/../../../arm-none-eabi/lib/armv6-m/libg.a(lib_a-lcltime_r.o) (gmtime_r)
/usr/lib/gcc/arm-none-eabi/5.4.1/../../../arm-none-eabi/lib/armv6-m/libg.a(lib_a-locale.o)
                              /usr/lib/gcc/arm-none-eabi/5.4.1/../../../arm-none-eabi/lib/armv6-m/libg.a(lib_a-svfprintf.o) (_localeconv_r)
/usr/lib/gcc/arm-none-eabi/5.4.1/../../../arm-none-eabi/lib/armv6-m/libg.a(lib_a-memchr-stub.o)
                              /usr/lib/gcc/arm-none-eabi/5.4.1/../../../arm-none-eabi/lib/armv6-m/libg.a(lib_a-svfprintf.o) (memchr)
/usr/lib/gcc/arm-none-eabi/5.4.1/../../../arm-none-eabi/lib/armv6-m/libg.a(lib_a-mprec.o)
                              /usr/lib/gcc/arm-none-eabi/5.4.1/../../../arm-none-eabi/lib/armv6-m/libg.a(lib_a-dtoa.o) (_Balloc)
/usr/lib/gcc/arm-none-eabi/5.4.1/../../../arm-none-eabi/lib/armv6-m/libg.a(lib_a-reent.o)
                              /usr/lib/gcc/arm-none-eabi/5.4.1/../../../arm-none-eabi/lib/armv6-m/libg.a(lib_a-sbrkr.o) (errno)
/usr/lib/gcc/arm-none-eabi/5.4.1/../../../arm-none-eabi/lib/armv6-m/libg.a(lib_a-siprintf.o)
                              /usr/lib/gcc/arm-none-eabi/5.4.1/../../../arm-none-eabi/lib/armv6-m/libg.a(lib_a-asctime_r.o) (siprintf)
/usr/lib/gcc/arm-none-eabi/5.4.1/../../../arm-none-eabi/lib/armv6-m/libg.a(lib_a-siscanf.o)
                              /usr/lib/gcc/arm-none-eabi/5.4.1/../../../arm-none-eabi/lib/armv6-m/libg.a(lib_a-tzset_r.o) (siscanf)
/usr/lib/gcc/arm-none-eabi/5.4.1/../../../arm-none-eabi/lib/armv6-m/libg.a(lib_a-stdio.o)
                              /usr/lib/gcc/arm-none-eabi/5.4.1/../../../arm-none-eabi/lib/armv6-m/libg.a(lib_a-siscanf.o) (__seofread)
/usr/lib/gcc/arm-none-eabi/5.4.1/../../../arm-none-eabi/lib/armv6-m/libg.a(lib_a-strcmp.o)
                              /usr/lib/gcc/arm-none-eabi/5.4.1/../../../arm-none-eabi/lib/armv6-m/libg.a(lib_a-tzset_r.o) (strcmp)
/usr/lib/gcc/arm-none-eabi/5.4.1/../../../arm-none-eabi/lib/armv6-m/libg.a(lib_a-strcpy.o)
                              /usr/lib/gcc/arm-none-eabi/5.4.1/../../../arm-none-eabi/lib/armv6-m/libg.a(lib_a-tzset_r.o) (strcpy)
/usr/lib/gcc/arm-none-eabi/5.4.1/../../../arm-none-eabi/lib/armv6-m/libg.a(lib_a-strlen-stub.o)
                              /usr/lib/gcc/arm-none-eabi/5.4.1/../../../arm-none-eabi/lib/armv6-m/libg.a(lib_a-svfprintf.o) (strlen)
/usr/lib/gcc/arm-none-eabi/5.4.1/../../../arm-none-eabi/lib/armv6-m/libg.a(lib_a-strncmp.o)
                              /usr/lib/gcc/arm-none-eabi/5.4.1/../../../arm-none-eabi/lib/armv6-m/libg.a(lib_a-getenv_r.o) (strncmp)
/usr/lib/gcc/arm-none-eabi/5.4.1/../../../arm-none-eabi/lib/armv6-m/libg.a(lib_a-strtoul.o)
                              /usr/lib/gcc/arm-none-eabi/5.4.1/../../../arm-none-eabi/lib/armv6-m/libg.a(lib_a-tzset_r.o) (strtoul)
/usr/lib/gcc/arm-none-eabi/5.4.1/../../../arm-none-eabi/lib/armv6-m/libg.a(lib_a-svfiprintf.o)
                              /usr/lib/gcc/arm-none-eabi/5.4.1/../../../arm-none-eabi/lib/armv6-m/libg.a(lib_a-svfprintf.o) (__ssprint_r)
/usr/lib/gcc/arm-none-eabi/5.4.1/../../../arm-none-eabi/lib/armv6-m/libg.a(lib_a-svfiscanf.o)
                              /usr/lib/gcc/arm-none-eabi/5.4.1/../../../arm-none-eabi/lib/armv6-m/libg.a(lib_a-siscanf.o) (__ssvfiscanf_r)
/usr/lib/gcc/arm-none-eabi/5.4.1/../../../arm-none-eabi/lib/armv6-m/libg.a(lib_a-ungetc.o)
                              /usr/lib/gcc/arm-none-eabi/5.4.1/../../../arm-none-eabi/lib/armv6-m/libg.a(lib_a-svfiscanf.o) (__submore)
/usr/lib/gcc/arm-none-eabi/5.4.1/../../../arm-none-eabi/lib/armv6-m/libg.a(lib_a-writer.o)
                              /usr/lib/gcc/arm-none-eabi/5.4.1/../../../arm-none-eabi/lib/armv6-m/libg.a(lib_a-stdio.o) (_write_r)
/usr/lib/gcc/arm-none-eabi/5.4.1/../../../arm-none-eabi/lib/armv6-m/libg.a(lib_a-callocr.o)
                              /usr/lib/gcc/arm-none-eabi/5.4.1/../../../arm-none-eabi/lib/armv6-m/libg.a(lib_a-mprec.o) (_calloc_r)
/usr/lib/gcc/arm-none-eabi/5.4.1/../../../arm-none-eabi/lib/armv6-m/libg.a(lib_a-closer.o)
                              /usr/lib/gcc/arm-none-eabi/5.4.1/../../../arm-none-eabi/lib/armv6-m/libg.a(lib_a-stdio.o) (_close_r)
/usr/lib/gcc/arm-none-eabi/5.4.1/../../../arm-none-eabi/lib/armv6-m/libg.a(lib_a-ctype_.o)
                              /usr/lib/gcc/arm-none-eabi/5.4.1/../../../arm-none-eabi/lib/armv6-m/libg.a(lib_a-strtoul.o) (__ctype_ptr__)
/usr/lib/gcc/arm-none-eabi/5.4.1/../../../arm-none-eabi/lib/armv6-m/libg.a(lib_a-environ.o)
                              /usr/lib/gcc/arm-none-eabi/5.4.1/../../../arm-none-eabi/lib/armv6-m/libg.a(lib_a-getenv_r.o) (environ)
/usr/lib/gcc/arm-none-eabi/5.4.1/../../../arm-none-eabi/lib/armv6-m/libg.a(lib_a-envlock.o)
                              /usr/lib/gcc/arm-none-eabi/5.4.1/../../../arm-none-eabi/lib/armv6-m/libg.a(lib_a-getenv_r.o) (__env_lock)
/usr/lib/gcc/arm-none-eabi/5.4.1/../../../arm-none-eabi/lib/armv6-m/libg.a(lib_a-fflush.o)
                              /usr/lib/gcc/arm-none-eabi/5.4.1/../../../arm-none-eabi/lib/armv6-m/libg.a(lib_a-ungetc.o) (_fflush_r)
/usr/lib/gcc/arm-none-eabi/5.4.1/../../../arm-none-eabi/lib/armv6-m/libg.a(lib_a-findfp.o)
                              /usr/lib/gcc/arm-none-eabi/5.4.1/../../../arm-none-eabi/lib/armv6-m/libg.a(lib_a-ungetc.o) (__sinit)
/usr/lib/gcc/arm-none-eabi/5.4.1/../../../arm-none-eabi/lib/armv6-m/libg.a(lib_a-fwalk.o)
                              /usr/lib/gcc/arm-none-eabi/5.4.1/../../../arm-none-eabi/lib/armv6-m/libg.a(lib_a-findfp.o) (_fwalk)
/usr/lib/gcc/arm-none-eabi/5.4.1/../../../arm-none-eabi/lib/armv6-m/libg.a(lib_a-iswspace.o)
                              /usr/lib/gcc/arm-none-eabi/5.4.1/../../../arm-none-eabi/lib/armv6-m/libg.a(lib_a-svfiscanf.o) (iswspace)
/usr/lib/gcc/arm-none-eabi/5.4.1/../../../arm-none-eabi/lib/armv6-m/libg.a(lib_a-lseekr.o)
                              /usr/lib/gcc/arm-none-eabi/5.4.1/../../../arm-none-eabi/lib/armv6-m/libg.a(lib_a-stdio.o) (_lseek_r)
/usr/lib/gcc/arm-none-eabi/5.4.1/../../../arm-none-eabi/lib/armv6-m/libg.a(lib_a-mbrtowc.o)
                              /usr/lib/gcc/arm-none-eabi/5.4.1/../../../arm-none-eabi/lib/armv6-m/libg.a(lib_a-svfiscanf.o) (_mbrtowc_r)
/usr/lib/gcc/arm-none-eabi/5.4.1/../../../arm-none-eabi/lib/armv6-m/libg.a(lib_a-mbtowc_r.o)
                              /usr/lib/gcc/arm-none-eabi/5.4.1/../../../arm-none-eabi/lib/armv6-m/libg.a(lib_a-mbrtowc.o) (__mbtowc)
/usr/lib/gcc/arm-none-eabi/5.4.1/../../../arm-none-eabi/lib/armv6-m/libg.a(lib_a-readr.o)
                              /usr/lib/gcc/arm-none-eabi/5.4.1/../../../arm-none-eabi/lib/armv6-m/libg.a(lib_a-stdio.o) (_read_r)
/usr/lib/gcc/arm-none-eabi/5.4.1/../../../arm-none-eabi/lib/armv6-m/libg.a(lib_a-reallocr.o)
                              /usr/lib/gcc/arm-none-eabi/5.4.1/../../../arm-none-eabi/lib/armv6-m/libg.a(lib_a-svfiprintf.o) (_realloc_r)
/usr/lib/gcc/arm-none-eabi/5.4.1/../../../arm-none-eabi/lib/armv6-m/libg.a(lib_a-sccl.o)
                              /usr/lib/gcc/arm-none-eabi/5.4.1/../../../arm-none-eabi/lib/armv6-m/libg.a(lib_a-svfiscanf.o) (__sccl)
/usr/lib/gcc/arm-none-eabi/5.4.1/../../../arm-none-eabi/lib/armv6-m/libg.a(lib_a-strtol.o)
                              /usr/lib/gcc/arm-none-eabi/5.4.1/../../../arm-none-eabi/lib/armv6-m/libg.a(lib_a-svfiscanf.o) (_strtol_r)
/usr/lib/gcc/arm-none-eabi/5.4.1/../../../arm-none-eabi/lib/armv6-m/libg.a(lib_a-strtoll_r.o)
                              /usr/lib/gcc/arm-none-eabi/5.4.1/../../../arm-none-eabi/lib/armv6-m/libg.a(lib_a-svfiscanf.o) (_strtoll_r)
/usr/lib/gcc/arm-none-eabi/5.4.1/../../../arm-none-eabi/lib/armv6-m/libg.a(lib_a-strtoull_r.o)
                              /usr/lib/gcc/arm-none-eabi/5.4.1/../../../arm-none-eabi/lib/armv6-m/libg.a(lib_a-svfiscanf.o) (_strtoull_r)
/usr/lib/gcc/arm-none-eabi/5.4.1/../../../arm-none-eabi/lib/armv6-m/libg.a(lib_a-fclose.o)
                              /usr/lib/gcc/arm-none-eabi/5.4.1/../../../arm-none-eabi/lib/armv6-m/libg.a(lib_a-findfp.o) (_fclose_r)
/usr/lib/gcc/arm-none-eabi/5.4.1/armv6-m/libgcc.a(_divsi3.o)
                              /usr/lib/gcc/arm-none-eabi/5.4.1/../../../arm-none-eabi/lib/armv6-m/libg.a(lib_a-lcltime_r.o) (__aeabi_idiv)
/usr/lib/gcc/arm-none-eabi/5.4.1/armv6-m/libgcc.a(_aeabi_uldivmod.o)
                              /usr/lib/gcc/arm-none-eabi/5.4.1/../../../arm-none-eabi/lib/armv6-m/libg.a(lib_a-svfprintf.o) (__aeabi_uldivmod)
/usr/lib/gcc/arm-none-eabi/5.4.1/armv6-m/libgcc.a(_muldi3.o)
                              /usr/lib/gcc/arm-none-eabi/5.4.1/../../../arm-none-eabi/lib/armv6-m/libg.a(lib_a-strtoll_r.o) (__aeabi_lmul)
/usr/lib/gcc/arm-none-eabi/5.4.1/armv6-m/libgcc.a(_udivmoddi4.o)
                              /usr/lib/gcc/arm-none-eabi/5.4.1/armv6-m/libgcc.a(_aeabi_uldivmod.o) (__udivmoddi4)
/usr/lib/gcc/arm-none-eabi/5.4.1/armv6-m/libgcc.a(adddf3.o)
                              /usr/lib/gcc/arm-none-eabi/5.4.1/../../../arm-none-eabi/lib/armv6-m/libg.a(lib_a-dtoa.o) (__aeabi_dadd)
/usr/lib/gcc/arm-none-eabi/5.4.1/armv6-m/libgcc.a(subdf3.o)
                              /usr/lib/gcc/arm-none-eabi/5.4.1/../../../arm-none-eabi/lib/armv6-m/libg.a(lib_a-dtoa.o) (__aeabi_dsub)
/usr/lib/gcc/arm-none-eabi/5.4.1/armv6-m/libgcc.a(unorddf2.o)
                              /usr/lib/gcc/arm-none-eabi/5.4.1/../../../arm-none-eabi/lib/armv6-m/libg.a(lib_a-svfprintf.o) (__aeabi_dcmpun)
/usr/lib/gcc/arm-none-eabi/5.4.1/armv6-m/libgcc.a(fixdfsi.o)
                              /usr/lib/gcc/arm-none-eabi/5.4.1/../../../arm-none-eabi/lib/armv6-m/libg.a(lib_a-dtoa.o) (__aeabi_d2iz)
/usr/lib/gcc/arm-none-eabi/5.4.1/armv6-m/libgcc.a(floatsidf.o)
                              /usr/lib/gcc/arm-none-eabi/5.4.1/../../../arm-none-eabi/lib/armv6-m/libg.a(lib_a-dtoa.o) (__aeabi_i2d)
/usr/lib/gcc/arm-none-eabi/5.4.1/armv6-m/libgcc.a(floatunsidf.o)
                              /usr/lib/gcc/arm-none-eabi/5.4.1/../../../arm-none-eabi/lib/armv6-m/libg.a(lib_a-dtoa.o) (__aeabi_ui2d)
/usr/lib/gcc/arm-none-eabi/5.4.1/armv6-m/libgcc.a(_clzdi2.o)
                              /usr/lib/gcc/arm-none-eabi/5.4.1/armv6-m/libgcc.a(_udivmoddi4.o) (__clzdi2)
/usr/lib/gcc/arm-none-eabi/5.4.1/../../../arm-none-eabi/lib/armv6-m/libnosys.a(close.o)
                              /usr/lib/gcc/arm-none-eabi/5.4.1/../../../arm-none-eabi/lib/armv6-m/libg.a(lib_a-closer.o) (_close)
/usr/lib/gcc/arm-none-eabi/5.4.1/../../../arm-none-eabi/lib/armv6-m/libnosys.a(lseek.o)
                              /usr/lib/gcc/arm-none-eabi/5.4.1/../../../arm-none-eabi/lib/armv6-m/libg.a(lib_a-lseekr.o) (_lseek)
/usr/lib/gcc/arm-none-eabi/5.4.1/../../../arm-none-eabi/lib/armv6-m/libnosys.a(read.o)
                              /usr/lib/gcc/arm-none-eabi/5.4.1/../../../arm-none-eabi/lib/armv6-m/libg.a(lib_a-readr.o) (_read)
/usr/lib/gcc/arm-none-eabi/5.4.1/../../../arm-none-eabi/lib/armv6-m/libnosys.a(sbrk.o)
                              /usr/lib/gcc/arm-none-eabi/5.4.1/../../../arm-none-eabi/lib/armv6-m/libg.a(lib_a-sbrkr.o) (_sbrk)
/usr/lib/gcc/arm-none-eabi/5.4.1/../../../arm-none-eabi/lib/armv6-m/libnosys.a(write.o)
                              /usr/lib/gcc/arm-none-eabi/5.4.1/../../../arm-none-eabi/lib/armv6-m/libg.a(lib_a-writer.o) (_write)
/usr/lib/gcc/arm-none-eabi/5.4.1/../../../arm-none-eabi/lib/armv6-m/libnosys.a(_exit.o)
                              /usr/lib/gcc/arm-none-eabi/5.4.1/../../../arm-none-eabi/lib/armv6-m/libg.a(lib_a-exit.o) (_exit)

Allocating common symbols
Common symbol       size              file

errno               0x4               /usr/lib/gcc/arm-none-eabi/5.4.1/../../../arm-none-eabi/lib/armv6-m/libg.a(lib_a-reent.o)

Discarded input sections

 .group         0x00000000        0x8 debug.o
 .group         0x00000000        0x8 debug.o
 .group         0x00000000        0x8 debug.o
 .group         0x00000000        0x8 debug.o
 .group         0x00000000        0x8 debug.o
 .group         0x00000000        0x8 debug.o
 .group         0x00000000        0x8 debug.o
 .group         0x00000000        0x8 debug.o
 .group         0x00000000        0x8 debug.o
 .group         0x00000000        0x8 debug.o
 .group         0x00000000        0x8 debug.o
 .group         0x00000000        0x8 debug.o
 .group         0x00000000        0x8 debug.o
 .group         0x00000000        0x8 debug.o
 .group         0x00000000        0x8 debug.o
 .group         0x00000000        0x8 debug.o
 .group         0x00000000        0x8 debug.o
 .group         0x00000000        0x8 debug.o
 .group         0x00000000        0x8 debug.o
 .group         0x00000000        0x8 debug.o
 .group         0x00000000        0x8 debug.o
 .group         0x00000000        0x8 debug.o
 .group         0x00000000        0x8 debug.o
 .group         0x00000000        0x8 debug.o
 .group         0x00000000        0x8 memory.o
 .group         0x00000000        0x8 memory.o
 .group         0x00000000        0x8 memory.o
 .group         0x00000000        0x8 memory.o
 .group         0x00000000        0x8 memory.o
 .group         0x00000000        0x8 memory.o
 .group         0x00000000        0x8 memory.o
 .group         0x00000000        0x8 memory.o
 .group         0x00000000        0x8 memory.o
 .group         0x00000000        0x8 memory.o
 .group         0x00000000        0x8 memory.o
 .group         0x00000000        0x8 memory.o
 .group         0x00000000        0x8 memory.o
 .group         0x00000000        0x8 memory.o
 .group         0x00000000        0x8 memory.o
 .group         0x00000000        0x8 memory.o
 .group         0x00000000        0x8 memory.o
 .group         0x00000000        0x8 memory.o
 .group         0x00000000        0x8 memory.o
 .group         0x00000000        0x8 memory.o
 .group         0x00000000        0x8 memory.o
 .group         0x00000000        0x8 memory.o
 .group         0x00000000        0x8 memory.o
 .group         0x00000000        0x8 memory.o
 .group         0x00000000        0x8 memory.o
 .debug_macro   0x00000000      0x82c memory.o
 .debug_macro   0x00000000       0x22 memory.o
 .debug_macro   0x00000000       0x4f memory.o
 .debug_macro   0x00000000       0x44 memory.o
 .debug_macro   0x00000000       0xfd memory.o
 .debug_macro   0x00000000       0x5e memory.o
 .debug_macro   0x00000000      0x1df memory.o
 .debug_macro   0x00000000       0x52 memory.o
 .debug_macro   0x00000000       0x35 memory.o
 .debug_macro   0x00000000       0x9c memory.o
 .debug_macro   0x00000000       0x52 memory.o
 .debug_macro   0x00000000       0x1f memory.o
 .debug_macro   0x00000000       0x43 memory.o
 .debug_macro   0x00000000       0x20 memory.o
 .debug_macro   0x00000000      0x187 memory.o
 .debug_macro   0x00000000      0x330 memory.o
 .group         0x00000000        0x8 conversion.o
 .group         0x00000000        0x8 conversion.o
 .group         0x00000000        0x8 conversion.o
 .group         0x00000000        0x8 conversion.o
 .group         0x00000000        0x8 conversion.o
 .group         0x00000000        0x8 conversion.o
 .group         0x00000000        0x8 conversion.o
 .group         0x00000000        0x8 conversion.o
 .group         0x00000000        0x8 conversion.o
 .group         0x00000000        0x8 conversion.o
 .group         0x00000000        0x8 conversion.o
 .group         0x00000000        0x8 conversion.o
 .group         0x00000000        0x8 conversion.o
 .group         0x00000000        0x8 conversion.o
 .group         0x00000000        0x8 conversion.o
 .group         0x00000000        0x8 conversion.o
 .group         0x00000000        0x8 conversion.o
 .group         0x00000000        0x8 conversion.o
 .group         0x00000000        0x8 conversion.o
 .group         0x00000000        0x8 conversion.o
 .group         0x00000000        0x8 conversion.o
 .group         0x00000000        0x8 conversion.o
 .group         0x00000000        0x8 conversion.o
 .group         0x00000000        0x8 conversion.o
 .debug_macro   0x00000000      0x82c conversion.o
 .debug_macro   0x00000000       0x22 conversion.o
 .debug_macro   0x00000000       0x4f conversion.o
 .debug_macro   0x00000000       0x44 conversion.o
 .debug_macro   0x00000000       0xfd conversion.o
 .debug_macro   0x00000000       0x5e conversion.o
 .debug_macro   0x00000000      0x1df conversion.o
 .debug_macro   0x00000000       0x52 conversion.o
 .debug_macro   0x00000000       0x35 conversion.o
 .debug_macro   0x00000000       0x9c conversion.o
 .debug_macro   0x00000000       0x16 conversion.o
 .debug_macro   0x00000000      0x10e conversion.o
 .debug_macro   0x00000000       0x86 conversion.o
 .debug_macro   0x00000000       0x52 conversion.o
 .debug_macro   0x00000000       0x1f conversion.o
 .debug_macro   0x00000000       0x43 conversion.o
 .debug_macro   0x00000000       0x20 conversion.o
 .debug_macro   0x00000000      0x187 conversion.o
 .debug_macro   0x00000000      0x330 conversion.o
 .debug_macro   0x00000000       0x22 conversion.o
 .debug_macro   0x00000000       0x10 conversion.o
 .debug_macro   0x00000000       0x35 conversion.o
 .debug_macro   0x00000000       0x3c conversion.o
 .group         0x00000000        0x8 circular_buffer.o
 .group         0x00000000        0x8 circular_buffer.o
 .group         0x00000000        0x8 circular_buffer.o
 .group         0x00000000        0x8 circular_buffer.o
 .group         0x00000000        0x8 circular_buffer.o
 .group         0x00000000        0x8 circular_buffer.o
 .group         0x00000000        0x8 circular_buffer.o
 .group         0x00000000        0x8 circular_buffer.o
 .group         0x00000000        0x8 circular_buffer.o
 .group         0x00000000        0x8 circular_buffer.o
 .group         0x00000000        0x8 circular_buffer.o
 .group         0x00000000        0x8 circular_buffer.o
 .group         0x00000000        0x8 circular_buffer.o
 .group         0x00000000        0x8 circular_buffer.o
 .group         0x00000000        0x8 circular_buffer.o
 .group         0x00000000        0x8 circular_buffer.o
 .group         0x00000000        0x8 circular_buffer.o
 .group         0x00000000        0x8 circular_buffer.o
 .group         0x00000000        0x8 circular_buffer.o
 .group         0x00000000        0x8 circular_buffer.o
 .group         0x00000000        0x8 circular_buffer.o
 .group         0x00000000        0x8 circular_buffer.o
 .group         0x00000000        0x8 circular_buffer.o
 .debug_macro   0x00000000      0x82c circular_buffer.o
 .debug_macro   0x00000000       0x22 circular_buffer.o
 .debug_macro   0x00000000       0x4f circular_buffer.o
 .debug_macro   0x00000000       0x44 circular_buffer.o
 .debug_macro   0x00000000       0xfd circular_buffer.o
 .debug_macro   0x00000000       0x5e circular_buffer.o
 .debug_macro   0x00000000      0x1df circular_buffer.o
 .debug_macro   0x00000000       0x52 circular_buffer.o
 .debug_macro   0x00000000       0x35 circular_buffer.o
 .debug_macro   0x00000000       0x9c circular_buffer.o
 .debug_macro   0x00000000       0x16 circular_buffer.o
 .debug_macro   0x00000000      0x10e circular_buffer.o
 .debug_macro   0x00000000       0x86 circular_buffer.o
 .debug_macro   0x00000000       0x52 circular_buffer.o
 .debug_macro   0x00000000       0x1f circular_buffer.o
 .debug_macro   0x00000000       0x43 circular_buffer.o
 .debug_macro   0x00000000       0x20 circular_buffer.o
 .debug_macro   0x00000000      0x187 circular_buffer.o
 .debug_macro   0x00000000      0x330 circular_buffer.o
 .debug_macro   0x00000000       0x22 circular_buffer.o
 .debug_macro   0x00000000       0x10 circular_buffer.o
 .debug_macro   0x00000000       0x35 circular_buffer.o
 .debug_macro   0x00000000       0x3c circular_buffer.o
 .group         0x00000000        0x8 platform.o
 .group         0x00000000        0x8 platform.o
 .group         0x00000000        0x8 platform.o
 .group         0x00000000        0x8 platform.o
 .group         0x00000000        0x8 platform.o
 .group         0x00000000        0x8 platform.o
 .group         0x00000000        0x8 platform.o
 .group         0x00000000        0x8 platform.o
 .group         0x00000000        0x8 platform.o
 .debug_macro   0x00000000      0x82c platform.o
 .debug_macro   0x00000000       0x22 platform.o
 .debug_macro   0x00000000       0x4f platform.o
 .debug_macro   0x00000000       0x44 platform.o
 .debug_macro   0x00000000       0xfd platform.o
 .debug_macro   0x00000000       0x5e platform.o
 .debug_macro   0x00000000      0x1df platform.o
 .group         0x00000000        0x8 logger_queue.o
 .debug_macro   0x00000000      0x82c logger_queue.o
 .group         0x00000000        0x8 logger_helper.o
 .group         0x00000000        0x8 logger_helper.o
 .group         0x00000000        0x8 logger_helper.o
 .group         0x00000000        0x8 logger_helper.o
 .group         0x00000000        0x8 logger_helper.o
 .group         0x00000000        0x8 logger_helper.o
 .group         0x00000000        0x8 logger_helper.o
 .group         0x00000000        0x8 logger_helper.o
 .group         0x00000000        0x8 logger_helper.o
 .group         0x00000000        0x8 logger_helper.o
 .group         0x00000000        0x8 logger_helper.o
 .group         0x00000000        0x8 logger_helper.o
 .group         0x00000000        0x8 logger_helper.o
 .group         0x00000000        0x8 logger_helper.o
 .group         0x00000000        0x8 logger_helper.o
 .group         0x00000000        0x8 logger_helper.o
 .group         0x00000000        0x8 logger_helper.o
 .group         0x00000000        0x8 logger_helper.o
 .group         0x00000000        0x8 logger_helper.o
 .group         0x00000000        0x8 logger_helper.o
 .group         0x00000000        0x8 logger_helper.o
 .group         0x00000000        0x8 logger_helper.o
 .group         0x00000000        0x8 logger_helper.o
 .group         0x00000000        0x8 logger_helper.o
 .group         0x00000000        0x8 logger_helper.o
 .group         0x00000000        0x8 logger_helper.o
 .group         0x00000000        0x8 logger_helper.o
 .group         0x00000000        0x8 logger_helper.o
 .group         0x00000000        0x8 logger_helper.o
 .group         0x00000000        0x8 logger_helper.o
 .group         0x00000000        0x8 logger_helper.o
 .group         0x00000000        0x8 logger_helper.o
 .debug_macro   0x00000000      0x82c logger_helper.o
 .debug_macro   0x00000000       0x22 logger_helper.o
 .debug_macro   0x00000000       0x4f logger_helper.o
 .debug_macro   0x00000000       0x44 logger_helper.o
 .debug_macro   0x00000000       0xfd logger_helper.o
 .debug_macro   0x00000000       0x5e logger_helper.o
 .debug_macro   0x00000000      0x1df logger_helper.o
 .debug_macro   0x00000000       0x28 logger_helper.o
 .debug_macro   0x00000000       0x58 logger_helper.o
 .debug_macro   0x00000000       0x52 logger_helper.o
 .debug_macro   0x00000000       0x35 logger_helper.o
 .debug_macro   0x00000000       0x9c logger_helper.o
 .debug_macro   0x00000000       0x52 logger_helper.o
 .debug_macro   0x00000000       0x1f logger_helper.o
 .debug_macro   0x00000000       0x43 logger_helper.o
 .debug_macro   0x00000000       0x20 logger_helper.o
 .debug_macro   0x00000000      0x187 logger_helper.o
 .debug_macro   0x00000000       0x35 logger_helper.o
 .debug_macro   0x00000000       0x3c logger_helper.o
 .debug_macro   0x00000000       0x16 logger_helper.o
 .debug_macro   0x00000000      0x330 logger_helper.o
 .debug_macro   0x00000000       0x10 logger_helper.o
 .debug_macro   0x00000000       0xb6 logger_helper.o
 .debug_macro   0x00000000       0x16 logger_helper.o
 .debug_macro   0x00000000      0x143 logger_helper.o
 .group         0x00000000        0x8 logger.o
 .group         0x00000000        0x8 logger.o
 .group         0x00000000        0x8 logger.o
 .group         0x00000000        0x8 logger.o
 .group         0x00000000        0x8 logger.o
 .group         0x00000000        0x8 logger.o
 .group         0x00000000        0x8 logger.o
 .group         0x00000000        0x8 logger.o
 .group         0x00000000        0x8 logger.o
 .group         0x00000000        0x8 logger.o
 .group         0x00000000        0x8 logger.o
 .group         0x00000000        0x8 logger.o
 .group         0x00000000        0x8 logger.o
 .group         0x00000000        0x8 logger.o
 .group         0x00000000        0x8 logger.o
 .group         0x00000000        0x8 logger.o
 .group         0x00000000        0x8 logger.o
 .group         0x00000000        0x8 logger.o
 .group         0x00000000        0x8 logger.o
 .group         0x00000000        0x8 logger.o
 .group         0x00000000        0x8 logger.o
 .group         0x00000000        0x8 logger.o
 .group         0x00000000        0x8 logger.o
 .group         0x00000000        0x8 logger.o
 .group         0x00000000        0x8 logger.o
 .group         0x00000000        0x8 logger.o
 .group         0x00000000        0x8 logger.o
 .group         0x00000000        0x8 logger.o
 .debug_macro   0x00000000      0x82c logger.o
 .debug_macro   0x00000000       0x22 logger.o
 .debug_macro   0x00000000       0x4f logger.o
 .debug_macro   0x00000000       0x44 logger.o
 .debug_macro   0x00000000       0xfd logger.o
 .debug_macro   0x00000000       0x5e logger.o
 .debug_macro   0x00000000      0x1df logger.o
 .debug_macro   0x00000000       0x28 logger.o
 .debug_macro   0x00000000       0x22 logger.o
 .debug_macro   0x00000000       0x58 logger.o
 .debug_macro   0x00000000       0x52 logger.o
 .debug_macro   0x00000000       0x35 logger.o
 .debug_macro   0x00000000       0x9c logger.o
 .debug_macro   0x00000000      0x16d logger.o
 .debug_macro   0x00000000       0x52 logger.o
 .debug_macro   0x00000000       0x1f logger.o
 .debug_macro   0x00000000       0x43 logger.o
 .debug_macro   0x00000000       0x20 logger.o
 .debug_macro   0x00000000      0x187 logger.o
 .debug_macro   0x00000000       0x35 logger.o
 .debug_macro   0x00000000       0x3c logger.o
 .debug_macro   0x00000000      0x330 logger.o
 .debug_macro   0x00000000       0x10 logger.o
 .debug_macro   0x00000000       0xb6 logger.o
 .debug_macro   0x00000000       0x16 logger.o
 .debug_macro   0x00000000      0x143 logger.o
 .group         0x00000000        0x8 data_processing.o
 .group         0x00000000        0x8 data_processing.o
 .group         0x00000000        0x8 data_processing.o
 .group         0x00000000        0x8 data_processing.o
 .group         0x00000000        0x8 data_processing.o
 .group         0x00000000        0x8 data_processing.o
 .group         0x00000000        0x8 data_processing.o
 .group         0x00000000        0x8 data_processing.o
 .group         0x00000000        0x8 data_processing.o
 .group         0x00000000        0x8 data_processing.o
 .group         0x00000000        0x8 data_processing.o
 .group         0x00000000        0x8 data_processing.o
 .group         0x00000000        0x8 data_processing.o
 .group         0x00000000        0x8 data_processing.o
 .group         0x00000000        0x8 data_processing.o
 .group         0x00000000        0x8 data_processing.o
 .group         0x00000000        0x8 data_processing.o
 .group         0x00000000        0x8 data_processing.o
 .group         0x00000000        0x8 data_processing.o
 .group         0x00000000        0x8 data_processing.o
 .group         0x00000000        0x8 data_processing.o
 .debug_macro   0x00000000      0x82c data_processing.o
 .debug_macro   0x00000000       0x22 data_processing.o
 .debug_macro   0x00000000       0x4f data_processing.o
 .debug_macro   0x00000000       0x44 data_processing.o
 .debug_macro   0x00000000       0xfd data_processing.o
 .debug_macro   0x00000000       0x5e data_processing.o
 .debug_macro   0x00000000      0x1df data_processing.o
 .debug_macro   0x00000000       0x28 data_processing.o
 .debug_macro   0x00000000       0x22 data_processing.o
 .debug_macro   0x00000000       0x52 data_processing.o
 .debug_macro   0x00000000       0x35 data_processing.o
 .debug_macro   0x00000000       0x9c data_processing.o
 .debug_macro   0x00000000      0x16d data_processing.o
 .debug_macro   0x00000000       0x52 data_processing.o
 .debug_macro   0x00000000       0x1f data_processing.o
 .debug_macro   0x00000000       0x43 data_processing.o
 .debug_macro   0x00000000       0x20 data_processing.o
 .debug_macro   0x00000000      0x187 data_processing.o
 .debug_macro   0x00000000       0x35 data_processing.o
 .debug_macro   0x00000000       0x3c data_processing.o
 .group         0x00000000        0x8 timestamp.o
 .group         0x00000000        0x8 timestamp.o
 .group         0x00000000        0x8 timestamp.o
 .group         0x00000000        0x8 timestamp.o
 .group         0x00000000        0x8 timestamp.o
 .group         0x00000000        0x8 timestamp.o
 .group         0x00000000        0x8 timestamp.o
 .group         0x00000000        0x8 timestamp.o
 .group         0x00000000        0x8 timestamp.o
 .group         0x00000000        0x8 timestamp.o
 .group         0x00000000        0x8 timestamp.o
 .group         0x00000000        0x8 timestamp.o
 .group         0x00000000        0x8 timestamp.o
 .group         0x00000000        0x8 timestamp.o
 .group         0x00000000        0x8 timestamp.o
 .group         0x00000000        0x8 timestamp.o
 .group         0x00000000        0x8 timestamp.o
 .group         0x00000000        0x8 timestamp.o
 .group         0x00000000        0x8 timestamp.o
 .group         0x00000000        0x8 timestamp.o
 .group         0x00000000        0x8 timestamp.o
 .group         0x00000000        0x8 timestamp.o
 .group         0x00000000        0x8 timestamp.o
 .group         0x00000000        0x8 timestamp.o
 .group         0x00000000        0x8 timestamp.o
 .group         0x00000000        0x8 timestamp.o
 .group         0x00000000        0x8 timestamp.o
 .group         0x00000000        0x8 timestamp.o
 .group         0x00000000        0x8 timestamp.o
 .group         0x00000000        0x8 timestamp.o
 .group         0x00000000        0x8 timestamp.o
 .group         0x00000000        0x8 timestamp.o
 .group         0x00000000        0x8 timestamp.o
 .debug_macro   0x00000000      0x82c timestamp.o
 .debug_macro   0x00000000       0x22 timestamp.o
 .debug_macro   0x00000000       0x4f timestamp.o
 .debug_macro   0x00000000       0x44 timestamp.o
 .debug_macro   0x00000000       0xfd timestamp.o
 .debug_macro   0x00000000       0x5e timestamp.o
 .debug_macro   0x00000000      0x1df timestamp.o
 .debug_macro   0x00000000       0x52 timestamp.o
 .debug_macro   0x00000000       0x35 timestamp.o
 .debug_macro   0x00000000       0x9c timestamp.o
 .debug_macro   0x00000000      0x16d timestamp.o
 .debug_macro   0x00000000      0x330 timestamp.o
 .debug_macro   0x00000000       0x52 timestamp.o
 .debug_macro   0x00000000       0x1f timestamp.o
 .debug_macro   0x00000000       0x43 timestamp.o
 .debug_macro   0x00000000       0x20 timestamp.o
 .debug_macro   0x00000000      0x187 timestamp.o
 .debug_macro   0x00000000       0x35 timestamp.o
 .debug_macro   0x00000000       0x10 timestamp.o
 .debug_macro   0x00000000       0x10 timestamp.o
 .debug_macro   0x00000000       0x10 timestamp.o
 .debug_macro   0x00000000       0xb6 timestamp.o
 .debug_macro   0x00000000       0x2e timestamp.o
 .debug_macro   0x00000000       0x22 timestamp.o
 .group         0x00000000        0x8 time_profiler.o
 .group         0x00000000        0x8 time_profiler.o
 .group         0x00000000        0x8 time_profiler.o
 .group         0x00000000        0x8 time_profiler.o
 .group         0x00000000        0x8 time_profiler.o
 .group         0x00000000        0x8 time_profiler.o
 .group         0x00000000        0x8 time_profiler.o
 .group         0x00000000        0x8 time_profiler.o
 .group         0x00000000        0x8 time_profiler.o
 .group         0x00000000        0x8 time_profiler.o
 .group         0x00000000        0x8 time_profiler.o
 .group         0x00000000        0x8 time_profiler.o
 .group         0x00000000        0x8 time_profiler.o
 .group         0x00000000        0x8 time_profiler.o
 .group         0x00000000        0x8 time_profiler.o
 .debug_macro   0x00000000      0x82c time_profiler.o
 .debug_macro   0x00000000       0x22 time_profiler.o
 .debug_macro   0x00000000       0x4f time_profiler.o
 .debug_macro   0x00000000       0x44 time_profiler.o
 .debug_macro   0x00000000       0xfd time_profiler.o
 .debug_macro   0x00000000       0x5e time_profiler.o
 .debug_macro   0x00000000      0x1df time_profiler.o
 .debug_macro   0x00000000       0x28 time_profiler.o
 .debug_macro   0x00000000       0x10 time_profiler.o
 .debug_macro   0x00000000       0x4c time_profiler.o
 .debug_macro   0x00000000       0x3a time_profiler.o
 .debug_macro   0x00000000       0x1f time_profiler.o
 .debug_macro   0x00000000      0x250 time_profiler.o
 .debug_macro   0x00000000       0x63 time_profiler.o
 .debug_macro   0x00000000     0x839f time_profiler.o
 .group         0x00000000        0x8 project3.o
 .group         0x00000000        0x8 project3.o
 .group         0x00000000        0x8 project3.o
 .group         0x00000000        0x8 project3.o
 .group         0x00000000        0x8 project3.o
 .group         0x00000000        0x8 project3.o
 .group         0x00000000        0x8 project3.o
 .group         0x00000000        0x8 project3.o
 .group         0x00000000        0x8 project3.o
 .group         0x00000000        0x8 project3.o
 .group         0x00000000        0x8 project3.o
 .group         0x00000000        0x8 project3.o
 .group         0x00000000        0x8 project3.o
 .group         0x00000000        0x8 project3.o
 .group         0x00000000        0x8 project3.o
 .group         0x00000000        0x8 project3.o
 .group         0x00000000        0x8 project3.o
 .group         0x00000000        0x8 project3.o
 .group         0x00000000        0x8 project3.o
 .group         0x00000000        0x8 project3.o
 .group         0x00000000        0x8 project3.o
 .group         0x00000000        0x8 project3.o
 .group         0x00000000        0x8 project3.o
 .group         0x00000000        0x8 project3.o
 .group         0x00000000        0x8 project3.o
 .group         0x00000000        0x8 project3.o
 .group         0x00000000        0x8 project3.o
 .group         0x00000000        0x8 project3.o
 .group         0x00000000        0x8 project3.o
 .group         0x00000000        0x8 project3.o
 .group         0x00000000        0x8 project3.o
 .group         0x00000000        0x8 project3.o
 .group         0x00000000        0x8 project3.o
 .group         0x00000000        0x8 project3.o
 .group         0x00000000        0x8 project3.o
 .group         0x00000000        0x8 project3.o
 .group         0x00000000        0x8 project3.o
 .group         0x00000000        0x8 project3.o
 .group         0x00000000        0x8 project3.o
 .group         0x00000000        0x8 project3.o
 .group         0x00000000        0x8 project3.o
 .debug_macro   0x00000000      0x82c project3.o
 .debug_macro   0x00000000       0x22 project3.o
 .debug_macro   0x00000000       0x4f project3.o
 .debug_macro   0x00000000       0x44 project3.o
 .debug_macro   0x00000000       0xfd project3.o
 .debug_macro   0x00000000       0x5e project3.o
 .debug_macro   0x00000000      0x1df project3.o
 .debug_macro   0x00000000       0x52 project3.o
 .debug_macro   0x00000000       0x35 project3.o
 .debug_macro   0x00000000       0x9c project3.o
 .debug_macro   0x00000000       0x16 project3.o
 .debug_macro   0x00000000      0x10e project3.o
 .debug_macro   0x00000000       0x86 project3.o
 .debug_macro   0x00000000       0x52 project3.o
 .debug_macro   0x00000000       0x1f project3.o
 .debug_macro   0x00000000       0x43 project3.o
 .debug_macro   0x00000000       0x20 project3.o
 .debug_macro   0x00000000      0x187 project3.o
 .debug_macro   0x00000000      0x330 project3.o
 .debug_macro   0x00000000       0x22 project3.o
 .debug_macro   0x00000000       0x28 project3.o
 .debug_macro   0x00000000       0x10 project3.o
 .debug_macro   0x00000000       0x1c project3.o
 .debug_macro   0x00000000       0x16 project3.o
 .debug_macro   0x00000000       0x35 project3.o
 .debug_macro   0x00000000       0x10 project3.o
 .debug_macro   0x00000000       0x22 project3.o
 .debug_macro   0x00000000       0x22 project3.o
 .debug_macro   0x00000000       0x16 project3.o
 .debug_macro   0x00000000       0x10 project3.o
 .debug_macro   0x00000000       0x10 project3.o
 .debug_macro   0x00000000       0x10 project3.o
 .debug_macro   0x00000000       0xb6 project3.o
 .debug_macro   0x00000000       0x2e project3.o
 .debug_macro   0x00000000       0x4c project3.o
 .debug_macro   0x00000000       0x3a project3.o
 .debug_macro   0x00000000       0x1f project3.o
 .debug_macro   0x00000000      0x250 project3.o
 .debug_macro   0x00000000       0x63 project3.o
 .debug_macro   0x00000000     0x839f project3.o
 .group         0x00000000        0x8 main.o
 .debug_macro   0x00000000      0x82c main.o
 .group         0x00000000        0x8 system_MKL25Z4.o
 .group         0x00000000        0x8 system_MKL25Z4.o
 .group         0x00000000        0x8 system_MKL25Z4.o
 .group         0x00000000        0x8 system_MKL25Z4.o
 .group         0x00000000        0x8 system_MKL25Z4.o
 .group         0x00000000        0x8 system_MKL25Z4.o
 .group         0x00000000        0x8 system_MKL25Z4.o
 .group         0x00000000        0x8 system_MKL25Z4.o
 .group         0x00000000        0x8 system_MKL25Z4.o
 .group         0x00000000        0x8 system_MKL25Z4.o
 .group         0x00000000        0x8 system_MKL25Z4.o
 .group         0x00000000        0x8 system_MKL25Z4.o
 .group         0x00000000        0x8 system_MKL25Z4.o
 .debug_macro   0x00000000      0x82c system_MKL25Z4.o
 .debug_macro   0x00000000       0x22 system_MKL25Z4.o
 .debug_macro   0x00000000       0x4f system_MKL25Z4.o
 .debug_macro   0x00000000       0x44 system_MKL25Z4.o
 .debug_macro   0x00000000       0xfd system_MKL25Z4.o
 .debug_macro   0x00000000       0x5e system_MKL25Z4.o
 .debug_macro   0x00000000      0x1df system_MKL25Z4.o
 .debug_macro   0x00000000       0x4c system_MKL25Z4.o
 .debug_macro   0x00000000       0x3a system_MKL25Z4.o
 .debug_macro   0x00000000       0x1f system_MKL25Z4.o
 .debug_macro   0x00000000      0x250 system_MKL25Z4.o
 .debug_macro   0x00000000       0x63 system_MKL25Z4.o
 .debug_macro   0x00000000     0x839f system_MKL25Z4.o
 .group         0x00000000        0x8 mcg.o
 .group         0x00000000        0x8 mcg.o
 .group         0x00000000        0x8 mcg.o
 .group         0x00000000        0x8 mcg.o
 .group         0x00000000        0x8 mcg.o
 .group         0x00000000        0x8 mcg.o
 .group         0x00000000        0x8 mcg.o
 .group         0x00000000        0x8 mcg.o
 .group         0x00000000        0x8 mcg.o
 .group         0x00000000        0x8 mcg.o
 .group         0x00000000        0x8 mcg.o
 .group         0x00000000        0x8 mcg.o
 .group         0x00000000        0x8 mcg.o
 .group         0x00000000        0x8 mcg.o
 .group         0x00000000        0x8 mcg.o
 .group         0x00000000        0x8 mcg.o
 .group         0x00000000        0x8 mcg.o
 .group         0x00000000        0x8 mcg.o
 .group         0x00000000        0x8 mcg.o
 .group         0x00000000        0x8 mcg.o
 .group         0x00000000        0x8 mcg.o
 .group         0x00000000        0x8 mcg.o
 .group         0x00000000        0x8 mcg.o
 .group         0x00000000        0x8 mcg.o
 .group         0x00000000        0x8 mcg.o
 .group         0x00000000        0x8 mcg.o
 .group         0x00000000        0x8 mcg.o
 .group         0x00000000        0x8 mcg.o
 .group         0x00000000        0x8 mcg.o
 .group         0x00000000        0x8 mcg.o
 .group         0x00000000        0x8 mcg.o
 .group         0x00000000        0x8 mcg.o
 .debug_macro   0x00000000      0x82c mcg.o
 .debug_macro   0x00000000       0x22 mcg.o
 .debug_macro   0x00000000       0x4f mcg.o
 .debug_macro   0x00000000       0x44 mcg.o
 .debug_macro   0x00000000       0xfd mcg.o
 .debug_macro   0x00000000       0x5e mcg.o
 .debug_macro   0x00000000      0x1df mcg.o
 .debug_macro   0x00000000       0x3a mcg.o
 .debug_macro   0x00000000       0x1f mcg.o
 .debug_macro   0x00000000      0x250 mcg.o
 .debug_macro   0x00000000       0x63 mcg.o
 .debug_macro   0x00000000     0x839f mcg.o
 .debug_macro   0x00000000       0x28 mcg.o
 .debug_macro   0x00000000       0x52 mcg.o
 .debug_macro   0x00000000       0x35 mcg.o
 .debug_macro   0x00000000       0x9c mcg.o
 .debug_macro   0x00000000      0x16d mcg.o
 .debug_macro   0x00000000      0x330 mcg.o
 .debug_macro   0x00000000       0x52 mcg.o
 .debug_macro   0x00000000       0x1f mcg.o
 .debug_macro   0x00000000       0x43 mcg.o
 .debug_macro   0x00000000       0x20 mcg.o
 .debug_macro   0x00000000      0x187 mcg.o
 .debug_macro   0x00000000       0x10 mcg.o
 .debug_macro   0x00000000       0x35 mcg.o
 .debug_macro   0x00000000       0x10 mcg.o
 .debug_macro   0x00000000       0x10 mcg.o
 .debug_macro   0x00000000       0x10 mcg.o
 .debug_macro   0x00000000       0xb6 mcg.o
 .debug_macro   0x00000000       0x2e mcg.o
 .group         0x00000000        0x8 gpio.o
 .group         0x00000000        0x8 gpio.o
 .group         0x00000000        0x8 gpio.o
 .group         0x00000000        0x8 gpio.o
 .group         0x00000000        0x8 gpio.o
 .group         0x00000000        0x8 gpio.o
 .group         0x00000000        0x8 gpio.o
 .group         0x00000000        0x8 gpio.o
 .group         0x00000000        0x8 gpio.o
 .group         0x00000000        0x8 gpio.o
 .group         0x00000000        0x8 gpio.o
 .group         0x00000000        0x8 gpio.o
 .group         0x00000000        0x8 gpio.o
 .group         0x00000000        0x8 gpio.o
 .debug_macro   0x00000000      0x82c gpio.o
 .debug_macro   0x00000000       0x16 gpio.o
 .debug_macro   0x00000000       0x22 gpio.o
 .debug_macro   0x00000000       0x4f gpio.o
 .debug_macro   0x00000000       0x44 gpio.o
 .debug_macro   0x00000000       0xfd gpio.o
 .debug_macro   0x00000000       0x5e gpio.o
 .debug_macro   0x00000000      0x1df gpio.o
 .debug_macro   0x00000000       0x3a gpio.o
 .debug_macro   0x00000000       0x3a gpio.o
 .debug_macro   0x00000000       0x1f gpio.o
 .debug_macro   0x00000000      0x250 gpio.o
 .debug_macro   0x00000000       0x63 gpio.o
 .debug_macro   0x00000000     0x839f gpio.o
 .group         0x00000000        0x8 uart0.o
 .group         0x00000000        0x8 uart0.o
 .group         0x00000000        0x8 uart0.o
 .group         0x00000000        0x8 uart0.o
 .group         0x00000000        0x8 uart0.o
 .group         0x00000000        0x8 uart0.o
 .group         0x00000000        0x8 uart0.o
 .group         0x00000000        0x8 uart0.o
 .group         0x00000000        0x8 uart0.o
 .group         0x00000000        0x8 uart0.o
 .group         0x00000000        0x8 uart0.o
 .group         0x00000000        0x8 uart0.o
 .group         0x00000000        0x8 uart0.o
 .group         0x00000000        0x8 uart0.o
 .group         0x00000000        0x8 uart0.o
 .group         0x00000000        0x8 uart0.o
 .group         0x00000000        0x8 uart0.o
 .group         0x00000000        0x8 uart0.o
 .group         0x00000000        0x8 uart0.o
 .group         0x00000000        0x8 uart0.o
 .group         0x00000000        0x8 uart0.o
 .group         0x00000000        0x8 uart0.o
 .group         0x00000000        0x8 uart0.o
 .group         0x00000000        0x8 uart0.o
 .group         0x00000000        0x8 uart0.o
 .group         0x00000000        0x8 uart0.o
 .group         0x00000000        0x8 uart0.o
 .group         0x00000000        0x8 uart0.o
 .group         0x00000000        0x8 uart0.o
 .group         0x00000000        0x8 uart0.o
 .group         0x00000000        0x8 uart0.o
 .group         0x00000000        0x8 uart0.o
 .group         0x00000000        0x8 uart0.o
 .group         0x00000000        0x8 uart0.o
 .group         0x00000000        0x8 uart0.o
 .group         0x00000000        0x8 uart0.o
 .group         0x00000000        0x8 uart0.o
 .group         0x00000000        0x8 uart0.o
 .debug_macro   0x00000000      0x82c uart0.o
 .debug_macro   0x00000000       0x16 uart0.o
 .debug_macro   0x00000000       0x22 uart0.o
 .debug_macro   0x00000000       0x4f uart0.o
 .debug_macro   0x00000000       0x44 uart0.o
 .debug_macro   0x00000000       0xfd uart0.o
 .debug_macro   0x00000000       0x5e uart0.o
 .debug_macro   0x00000000      0x1df uart0.o
 .debug_macro   0x00000000       0x3a uart0.o
 .debug_macro   0x00000000       0x3a uart0.o
 .debug_macro   0x00000000       0x1f uart0.o
 .debug_macro   0x00000000      0x250 uart0.o
 .debug_macro   0x00000000       0x63 uart0.o
 .debug_macro   0x00000000     0x839f uart0.o
 .debug_macro   0x00000000       0x28 uart0.o
 .debug_macro   0x00000000       0x28 uart0.o
 .debug_macro   0x00000000       0x52 uart0.o
 .debug_macro   0x00000000       0x35 uart0.o
 .debug_macro   0x00000000       0x9c uart0.o
 .debug_macro   0x00000000      0x16d uart0.o
 .debug_macro   0x00000000       0x52 uart0.o
 .debug_macro   0x00000000       0x1f uart0.o
 .debug_macro   0x00000000       0x43 uart0.o
 .debug_macro   0x00000000       0x20 uart0.o
 .debug_macro   0x00000000      0x187 uart0.o
 .debug_macro   0x00000000       0x35 uart0.o
 .debug_macro   0x00000000       0x3c uart0.o
 .debug_macro   0x00000000       0x1c uart0.o
 .debug_macro   0x00000000       0x16 uart0.o
 .debug_macro   0x00000000      0x330 uart0.o
 .debug_macro   0x00000000       0x22 uart0.o
 .debug_macro   0x00000000       0x58 uart0.o
 .debug_macro   0x00000000       0x1c uart0.o
 .debug_macro   0x00000000       0x10 uart0.o
 .debug_macro   0x00000000       0xb6 uart0.o
 .debug_macro   0x00000000       0x16 uart0.o
 .debug_macro   0x00000000      0x143 uart0.o
 .group         0x00000000        0x8 dma.o
 .group         0x00000000        0x8 dma.o
 .group         0x00000000        0x8 dma.o
 .group         0x00000000        0x8 dma.o
 .group         0x00000000        0x8 dma.o
 .group         0x00000000        0x8 dma.o
 .group         0x00000000        0x8 dma.o
 .group         0x00000000        0x8 dma.o
 .group         0x00000000        0x8 dma.o
 .group         0x00000000        0x8 dma.o
 .group         0x00000000        0x8 dma.o
 .group         0x00000000        0x8 dma.o
 .group         0x00000000        0x8 dma.o
 .group         0x00000000        0x8 dma.o
 .group         0x00000000        0x8 dma.o
 .group         0x00000000        0x8 dma.o
 .group         0x00000000        0x8 dma.o
 .group         0x00000000        0x8 dma.o
 .debug_macro   0x00000000      0x82c dma.o
 .debug_macro   0x00000000       0x22 dma.o
 .debug_macro   0x00000000       0x4f dma.o
 .debug_macro   0x00000000       0x44 dma.o
 .debug_macro   0x00000000       0xfd dma.o
 .debug_macro   0x00000000       0x5e dma.o
 .debug_macro   0x00000000      0x1df dma.o
 .debug_macro   0x00000000       0x28 dma.o
 .debug_macro   0x00000000       0x10 dma.o
 .debug_macro   0x00000000       0x4c dma.o
 .debug_macro   0x00000000       0x3a dma.o
 .debug_macro   0x00000000       0x1f dma.o
 .debug_macro   0x00000000      0x250 dma.o
 .debug_macro   0x00000000       0x63 dma.o
 .debug_macro   0x00000000     0x839f dma.o
 .debug_macro   0x00000000       0x10 dma.o
 .debug_macro   0x00000000       0x28 dma.o
 .debug_macro   0x00000000       0x22 dma.o
 .group         0x00000000        0x8 nordic_driver.o
 .group         0x00000000        0x8 nordic_driver.o
 .group         0x00000000        0x8 nordic_driver.o
 .group         0x00000000        0x8 nordic_driver.o
 .group         0x00000000        0x8 nordic_driver.o
 .group         0x00000000        0x8 nordic_driver.o
 .group         0x00000000        0x8 nordic_driver.o
 .group         0x00000000        0x8 nordic_driver.o
 .group         0x00000000        0x8 nordic_driver.o
 .group         0x00000000        0x8 nordic_driver.o
 .group         0x00000000        0x8 nordic_driver.o
 .group         0x00000000        0x8 nordic_driver.o
 .group         0x00000000        0x8 nordic_driver.o
 .group         0x00000000        0x8 nordic_driver.o
 .group         0x00000000        0x8 nordic_driver.o
 .group         0x00000000        0x8 nordic_driver.o
 .debug_macro   0x00000000      0x82c nordic_driver.o
 .debug_macro   0x00000000       0x22 nordic_driver.o
 .debug_macro   0x00000000       0x4f nordic_driver.o
 .debug_macro   0x00000000       0x44 nordic_driver.o
 .debug_macro   0x00000000       0xfd nordic_driver.o
 .debug_macro   0x00000000       0x5e nordic_driver.o
 .debug_macro   0x00000000      0x1df nordic_driver.o
 .debug_macro   0x00000000       0x4c nordic_driver.o
 .debug_macro   0x00000000       0x3a nordic_driver.o
 .debug_macro   0x00000000       0x1f nordic_driver.o
 .debug_macro   0x00000000      0x250 nordic_driver.o
 .debug_macro   0x00000000       0x63 nordic_driver.o
 .debug_macro   0x00000000     0x839f nordic_driver.o
 .debug_macro   0x00000000       0x28 nordic_driver.o
 .debug_macro   0x00000000      0x16d nordic_driver.o
 .group         0x00000000        0x8 spi.o
 .group         0x00000000        0x8 spi.o
 .group         0x00000000        0x8 spi.o
 .group         0x00000000        0x8 spi.o
 .group         0x00000000        0x8 spi.o
 .group         0x00000000        0x8 spi.o
 .group         0x00000000        0x8 spi.o
 .group         0x00000000        0x8 spi.o
 .group         0x00000000        0x8 spi.o
 .group         0x00000000        0x8 spi.o
 .group         0x00000000        0x8 spi.o
 .group         0x00000000        0x8 spi.o
 .group         0x00000000        0x8 spi.o
 .group         0x00000000        0x8 spi.o
 .group         0x00000000        0x8 spi.o
 .group         0x00000000        0x8 spi.o
 .group         0x00000000        0x8 spi.o
 .debug_macro   0x00000000      0x82c spi.o
 .debug_macro   0x00000000       0x16 spi.o
 .debug_macro   0x00000000       0x22 spi.o
 .debug_macro   0x00000000       0x4f spi.o
 .debug_macro   0x00000000       0x44 spi.o
 .debug_macro   0x00000000       0xfd spi.o
 .debug_macro   0x00000000       0x5e spi.o
 .debug_macro   0x00000000      0x1df spi.o
 .debug_macro   0x00000000       0x3a spi.o
 .debug_macro   0x00000000       0x3a spi.o
 .debug_macro   0x00000000       0x1f spi.o
 .debug_macro   0x00000000      0x250 spi.o
 .debug_macro   0x00000000       0x63 spi.o
 .debug_macro   0x00000000     0x839f spi.o
 .debug_macro   0x00000000       0x28 spi.o
 .debug_macro   0x00000000      0x16d spi.o
 .debug_macro   0x00000000       0x22 spi.o
 .group         0x00000000        0x8 timer0.o
 .group         0x00000000        0x8 timer0.o
 .group         0x00000000        0x8 timer0.o
 .group         0x00000000        0x8 timer0.o
 .group         0x00000000        0x8 timer0.o
 .group         0x00000000        0x8 timer0.o
 .group         0x00000000        0x8 timer0.o
 .group         0x00000000        0x8 timer0.o
 .group         0x00000000        0x8 timer0.o
 .group         0x00000000        0x8 timer0.o
 .group         0x00000000        0x8 timer0.o
 .group         0x00000000        0x8 timer0.o
 .group         0x00000000        0x8 timer0.o
 .group         0x00000000        0x8 timer0.o
 .group         0x00000000        0x8 timer0.o
 .group         0x00000000        0x8 timer0.o
 .group         0x00000000        0x8 timer0.o
 .group         0x00000000        0x8 timer0.o
 .group         0x00000000        0x8 timer0.o
 .group         0x00000000        0x8 timer0.o
 .group         0x00000000        0x8 timer0.o
 .group         0x00000000        0x8 timer0.o
 .group         0x00000000        0x8 timer0.o
 .group         0x00000000        0x8 timer0.o
 .group         0x00000000        0x8 timer0.o
 .group         0x00000000        0x8 timer0.o
 .group         0x00000000        0x8 timer0.o
 .group         0x00000000        0x8 timer0.o
 .group         0x00000000        0x8 timer0.o
 .debug_macro   0x00000000      0x82c timer0.o
 .debug_macro   0x00000000       0x16 timer0.o
 .debug_macro   0x00000000       0x22 timer0.o
 .debug_macro   0x00000000       0x4f timer0.o
 .debug_macro   0x00000000       0x44 timer0.o
 .debug_macro   0x00000000       0xfd timer0.o
 .debug_macro   0x00000000       0x5e timer0.o
 .debug_macro   0x00000000      0x1df timer0.o
 .debug_macro   0x00000000       0x3a timer0.o
 .debug_macro   0x00000000       0x3a timer0.o
 .debug_macro   0x00000000       0x1f timer0.o
 .debug_macro   0x00000000      0x250 timer0.o
 .debug_macro   0x00000000       0x63 timer0.o
 .debug_macro   0x00000000     0x839f timer0.o
 .debug_macro   0x00000000       0x28 timer0.o
 .debug_macro   0x00000000       0x1c timer0.o
 .debug_macro   0x00000000       0x52 timer0.o
 .debug_macro   0x00000000       0x35 timer0.o
 .debug_macro   0x00000000       0x9c timer0.o
 .debug_macro   0x00000000       0x16 timer0.o
 .debug_macro   0x00000000      0x10e timer0.o
 .debug_macro   0x00000000       0x86 timer0.o
 .debug_macro   0x00000000       0x52 timer0.o
 .debug_macro   0x00000000       0x1f timer0.o
 .debug_macro   0x00000000       0x43 timer0.o
 .debug_macro   0x00000000       0x20 timer0.o
 .debug_macro   0x00000000      0x187 timer0.o
 .debug_macro   0x00000000      0x330 timer0.o
 .debug_macro   0x00000000       0x22 timer0.o

Memory Configuration

Name             Origin             Length             Attributes
m_interrupts     0x00000000         0x00000100         xr
m_flash_config   0x00000400         0x00000010         xr
m_text           0x00000410         0x0001fbf0         xr
m_data           0x1ffff000         0x00004000         rw
*default*        0x00000000         0xffffffff

Linker script and memory map

LOAD /usr/lib/gcc/arm-none-eabi/5.4.1/armv6-m/crti.o
LOAD /usr/lib/gcc/arm-none-eabi/5.4.1/armv6-m/crtbegin.o
LOAD /usr/lib/gcc/arm-none-eabi/5.4.1/../../../arm-none-eabi/lib/armv6-m/crt0.o
LOAD debug.o
LOAD memory.o
LOAD conversion.o
LOAD circular_buffer.o
LOAD platform.o
LOAD logger_queue.o
LOAD logger_helper.o
LOAD logger.o
LOAD data_processing.o
LOAD timestamp.o
LOAD time_profiler.o
LOAD project3.o
LOAD main.o
LOAD system_MKL25Z4.o
LOAD mcg.o
LOAD gpio.o
LOAD uart0.o
LOAD dma.o
LOAD nordic_driver.o
LOAD spi.o
LOAD timer0.o
LOAD startup_MKL25Z4.o
START GROUP
LOAD /usr/lib/gcc/arm-none-eabi/5.4.1/armv6-m/libgcc.a
LOAD /usr/lib/gcc/arm-none-eabi/5.4.1/../../../arm-none-eabi/lib/armv6-m/libg.a
LOAD /usr/lib/gcc/arm-none-eabi/5.4.1/../../../arm-none-eabi/lib/armv6-m/libc.a
END GROUP
START GROUP
LOAD /usr/lib/gcc/arm-none-eabi/5.4.1/armv6-m/libgcc.a
LOAD /usr/lib/gcc/arm-none-eabi/5.4.1/../../../arm-none-eabi/lib/armv6-m/libc.a
LOAD /usr/lib/gcc/arm-none-eabi/5.4.1/../../../arm-none-eabi/lib/armv6-m/libnosys.a
END GROUP
LOAD /usr/lib/gcc/arm-none-eabi/5.4.1/armv6-m/crtend.o
LOAD /usr/lib/gcc/arm-none-eabi/5.4.1/armv6-m/crtn.o
                0x00003200                HEAP_SIZE = DEFINED (__heap_size__)?__heap_size__:0x3200
                0x00000400                STACK_SIZE = DEFINED (__stack_size__)?__stack_size__:0x400

.interrupts     0x00000000       0xc0
                0x00000000                __VECTOR_TABLE = .
                0x00000000                . = ALIGN (0x4)
 *(.isr_vector)
 .isr_vector    0x00000000       0xc0 startup_MKL25Z4.o
                0x00000000                __isr_vector
                0x000000c0                . = ALIGN (0x4)

.flash_config   0x00000400       0x10
                0x00000400                . = ALIGN (0x4)
 *(.FlashConfig)
 .FlashConfig   0x00000400       0x10 startup_MKL25Z4.o
                0x00000410                . = ALIGN (0x4)

.text           0x00000410     0xf03c
                0x00000410                . = ALIGN (0x4)
 *(.text)
 .text          0x00000410        0x0 /usr/lib/gcc/arm-none-eabi/5.4.1/armv6-m/crti.o
 .text          0x00000410       0xb4 /usr/lib/gcc/arm-none-eabi/5.4.1/armv6-m/crtbegin.o
 .text          0x000004c4       0x6c /usr/lib/gcc/arm-none-eabi/5.4.1/../../../arm-none-eabi/lib/armv6-m/crt0.o
                0x000004c4                _mainCRTStartup
                0x000004c4                _start
 .text          0x00000530       0x54 debug.o
                0x00000530                print_memory
 .text          0x00000584      0x394 memory.o
                0x00000584                my_memmove
                0x000005e0                my_memcpy
                0x00000634                my_memset
                0x00000678                my_memzero
                0x000006b8                my_reverse
                0x00000738                reserve_words
                0x00000758                free_words
                0x00000770                memmove_dma
                0x00000868                memset_dma
 .text          0x00000918      0x2d4 conversion.o
                0x00000918                power
                0x00000950                my_itoa
                0x00000a58                my_atoi
                0x00000b1c                big_to_little32
                0x00000b84                little_to_big32
 .text          0x00000bec      0x3c8 circular_buffer.o
                0x00000bec                CB_init
                0x00000c8c                CB_buffer_add_item
                0x00000d28                CB_buffer_remove_item
                0x00000dc8                CB_peek
                0x00000e8c                CB_is_full
                0x00000ee0                CB_is_empty
                0x00000f30                CB_destroy
                0x00000f90                get_CB_error_String
 .text          0x00000fb4       0x2c platform.o
                0x00000fb4                printf
 .text          0x00000fe0        0x0 logger_queue.o
 .text          0x00000fe0      0x8ac logger_helper.o
                0x00000fe0                getChecksum
                0x00001060                log_hearbeat
                0x000010ac                log_logger_initialized
                0x000010f8                log_gpio_initialized
                0x00001144                log_system_initialized
                0x00001190                log_system_halted
                0x000011dc                log_info
                0x00001248                log_warning
                0x000012b4                log_error
                0x00001320                log_profiling_started
                0x0000138c                log_profiling_result
                0x000013f8                log_profiling_completed
                0x00001464                log_data_received
                0x000014d0                log_data_analysis_started
                0x0000151c                log_data_alpha_count
                0x00001588                log_data_numeric_count
                0x000015f4                log_data_punctuation_count
                0x00001660                log_data_misc_count
                0x000016cc                log_data_analysis_completed
                0x00001738                get_LOG_ID_String
                0x0000175c                log_binary
                0x000017c4                log_ascii
                0x0000185c                log_item
 .text          0x0000188c       0xa0 logger.o
                0x0000188c                logger_log
 .text          0x0000192c      0x280 data_processing.o
                0x000019c8                processData
 .text          0x00001bac      0x234 timestamp.o
                0x00001c3c                rtc_init
                0x00001d08                RTC_IRQHandler
                0x00001d20                RTC_Seconds_IRQHandler
                0x00001d74                getcurrentTimeStampString
                0x00001da4                getString_of_TimeStamp
                0x00001dcc                getTimeStamp
 .text          0x00001de0       0xf0 time_profiler.o
                0x00001de0                profiler_setup
                0x00001e30                SysTick_IRQHandler
                0x00001e50                profiler_getTickDiff
                0x00001e70                profiler_getCurrentTick
                0x00001e84                profiler_getTime_us
 .text          0x00001ed0      0x5c8 project3.o
                0x00001ed0                project3
                0x00001f34                profile_memoryFunctions
                0x000022b8                profiler_Test
                0x00002338                Nordic_Test
 .text          0x00002498       0x10 main.o
                0x00002498                main
 .text          0x000024a8      0x258 system_MKL25Z4.o
                0x000024a8                SystemInit
                0x000024c0                SystemCoreClockUpdate
 .text          0x00002700       0x20 mcg.o
                0x00002700                mcg_Init
 .text          0x00002720      0x43c gpio.o
                0x00002720                GPIO_PORTA_ENABLE
                0x00002744                GPIO_PORTB_ENABLE
                0x00002768                GPIO_PORTC_ENABLE
                0x0000278c                GPIO_PORTD_ENABLE
                0x000027b0                GPIO_PORTE_ENABLE
                0x000027d4                GPIO_PORT_ENABLE
                0x00002820                GPIO_PinDir
                0x000028a0                GPIO_PinOutClear
                0x000028e4                GPIO_PinOutSet
                0x00002928                GPIO_PinOutToggle
                0x0000296c                GPIO_PinOutGet
                0x000029a8                GPIO_PinInGet
                0x000029e4                GPIO_PinAltFuncSel
                0x00002a3c                GPIO_Red_Led_En
                0x00002a60                GPIO_Green_Led_En
                0x00002a84                GPIO_Blue_Led_En
                0x00002aa8                GPIO_Red_On
                0x00002abc                GPIO_Red_Off
                0x00002ad0                GPIO_Red_Toggle
                0x00002ae4                GPIO_Green_On
                0x00002af8                GPIO_Green_Off
                0x00002b0c                GPIO_Green_Toggle
                0x00002b20                GPIO_Blue_On
                0x00002b34                GPIO_Blue_Off
                0x00002b48                GPIO_Blue_Toggle
 .text          0x00002b5c      0x9a0 uart0.o
                0x00002b88                UART0_getBuffer
                0x00002bbc                UART0_setBuffer
                0x00002d08                UART0_configure
                0x00002e78                UART0_send
                0x00002ebc                UART0_sendN
                0x00002ef8                UART0_puts
                0x00002f34                UART0_putstr
                0x00002fb0                convert
                0x00003008                UART0_printf
                0x0000319c                UART0_CBsend
                0x000031d8                UART0_receive
                0x00003210                UART0_receiveN
                0x0000324c                UART0_CBsendN
                0x000032bc                UART0_CBreceive
                0x00003310                UART0_CBreceiveN
                0x0000337c                UART0_logFlush
                0x00003398                UART0_IRQHandler
 .text          0x000034fc      0x6c8 dma.o
                0x0000355c                dma_clockEnable
                0x00003580                dma_clockDisable
                0x000035c4                dma_configure
                0x00003768                dma_initiate
                0x00003a08                dma_startTransfer
                0x00003a84                DMA0_IRQHandler
                0x00003ae8                DMA1_IRQHandler
                0x00003b54                DMA2_IRQHandler
                0x00003b8c                DMA3_IRQHandler
 .text          0x00003bc4      0x328 nordic_driver.o
                0x00003bec                NRF_gpioInit
                0x00003c34                NRF_moduleInit
                0x00003c48                NRF_moduleDisable
                0x00003c6c                NRF_read_register
                0x00003cc4                NRF_write_command
                0x00003cf8                NRF_write_register
                0x00003d48                NRF_read_status
                0x00003d5c                NRF_write_config
                0x00003d7c                NRF_read_config
                0x00003d90                NRF_read_rf_setup
                0x00003da4                NRF_write_rf_setup
                0x00003dc4                NRF_read_rf_ch
                0x00003dd8                NRF_write_rf_ch
                0x00003df8                NRF_read_TX_ADDR
                0x00003e60                NRF_write_TX_ADDR
                0x00003ea4                NRF_read_fifo_status
                0x00003eb8                NRF_flush_tx_fifo
                0x00003ec8                NRF_flush_rx_fifo
                0x00003ed8                NRF_activate_cmd
 .text          0x00003eec      0x34c spi.o
                0x00003f1c                SPI_GPIO_init
                0x00003f70                SPI_disable
                0x00003fb4                SPI_clock_init
                0x00004008                SPI_init
                0x000040e8                SPI_read_byte
                0x00004124                SPI_write_byte
                0x00004168                SPI_write_packet
                0x000041c0                SPI_read_packet
                0x00004218                SPI0_IRQHandler
 .text          0x00004238       0xf4 timer0.o
                0x00004264                timer0_clockInit
                0x000042a0                timer0_configure
                0x00004300                TPM0_IRQHandler
 .text          0x0000432c       0x34 startup_MKL25Z4.o
                0x0000432c                Reset_Handler
                0x00004358                I2C0_IRQHandler
                0x00004358                HardFault_Handler
                0x00004358                SysTick_Handler
                0x00004358                PendSV_Handler
                0x00004358                NMI_Handler
                0x00004358                I2C1_IRQHandler
                0x00004358                UART1_IRQHandler
                0x00004358                LLWU_IRQHandler
                0x00004358                TSI0_IRQHandler
                0x00004358                ADC0_IRQHandler
                0x00004358                Reserved39_IRQHandler
                0x00004358                SPI1_IRQHandler
                0x00004358                DefaultISR
                0x00004358                PORTD_IRQHandler
                0x00004358                TPM2_IRQHandler
                0x00004358                MCG_IRQHandler
                0x00004358                UART2_IRQHandler
                0x00004358                Reserved20_IRQHandler
                0x00004358                USB0_IRQHandler
                0x00004358                PIT_IRQHandler
                0x00004358                SVC_Handler
                0x00004358                DAC0_IRQHandler
                0x00004358                Reserved45_IRQHandler
                0x00004358                TPM1_IRQHandler
                0x00004358                LVD_LVW_IRQHandler
                0x00004358                PORTA_IRQHandler
                0x00004358                FTFA_IRQHandler
                0x00004358                LPTMR0_IRQHandler
                0x00004358                CMP0_IRQHandler
 .text          0x00004360      0x114 /usr/lib/gcc/arm-none-eabi/5.4.1/armv6-m/libgcc.a(_udivsi3.o)
                0x00004360                __udivsi3
                0x00004360                __aeabi_uidiv
                0x0000446c                __aeabi_uidivmod
 .text          0x00004474        0x4 /usr/lib/gcc/arm-none-eabi/5.4.1/armv6-m/libgcc.a(_dvmd_tls.o)
                0x00004474                __aeabi_ldiv0
                0x00004474                __aeabi_idiv0
 .text          0x00004478       0x7c /usr/lib/gcc/arm-none-eabi/5.4.1/armv6-m/libgcc.a(_arm_cmpdf2.o)
                0x00004478                __aeabi_cdrcmple
                0x00004488                __aeabi_cdcmple
                0x00004488                __aeabi_cdcmpeq
                0x00004498                __aeabi_dcmpeq
                0x000044a4                __aeabi_dcmplt
                0x000044b8                __aeabi_dcmple
                0x000044cc                __aeabi_dcmpgt
                0x000044e0                __aeabi_dcmpge
 .text          0x000044f4       0x7c /usr/lib/gcc/arm-none-eabi/5.4.1/armv6-m/libgcc.a(floatunsisf.o)
                0x000044f4                __aeabi_ui2f
 .text          0x00004570      0x62c /usr/lib/gcc/arm-none-eabi/5.4.1/armv6-m/libgcc.a(divdf3.o)
                0x00004570                __aeabi_ddiv
 .text          0x00004b9c       0x80 /usr/lib/gcc/arm-none-eabi/5.4.1/armv6-m/libgcc.a(eqdf2.o)
                0x00004b9c                __eqdf2
                0x00004b9c                __nedf2
 .text          0x00004c1c       0xc8 /usr/lib/gcc/arm-none-eabi/5.4.1/armv6-m/libgcc.a(gedf2.o)
                0x00004c1c                __gtdf2
                0x00004c1c                __gedf2
 .text          0x00004ce4       0xd4 /usr/lib/gcc/arm-none-eabi/5.4.1/armv6-m/libgcc.a(ledf2.o)
                0x00004ce4                __ltdf2
                0x00004ce4                __ledf2
 .text          0x00004db8      0x4f4 /usr/lib/gcc/arm-none-eabi/5.4.1/armv6-m/libgcc.a(muldf3.o)
                0x00004db8                __aeabi_dmul
 .text          0x000052ac       0xa8 /usr/lib/gcc/arm-none-eabi/5.4.1/armv6-m/libgcc.a(extendsfdf2.o)
                0x000052ac                __aeabi_f2d
 .text          0x00005354      0x118 /usr/lib/gcc/arm-none-eabi/5.4.1/armv6-m/libgcc.a(truncdfsf2.o)
                0x00005354                __aeabi_d2f
 .text          0x0000546c       0x3c /usr/lib/gcc/arm-none-eabi/5.4.1/armv6-m/libgcc.a(_clzsi2.o)
                0x0000546c                __clzsi2
 .text          0x000054a8       0x10 /usr/lib/gcc/arm-none-eabi/5.4.1/../../../arm-none-eabi/lib/armv6-m/libg.a(lib_a-atexit.o)
                0x000054a8                atexit
 .text          0x000054b8        0xc /usr/lib/gcc/arm-none-eabi/5.4.1/../../../arm-none-eabi/lib/armv6-m/libg.a(lib_a-ctime.o)
                0x000054b8                ctime
 .text          0x000054c4       0x20 /usr/lib/gcc/arm-none-eabi/5.4.1/../../../arm-none-eabi/lib/armv6-m/libg.a(lib_a-exit.o)
                0x000054c4                exit
 .text          0x000054e4       0x34 /usr/lib/gcc/arm-none-eabi/5.4.1/../../../arm-none-eabi/lib/armv6-m/libg.a(lib_a-fini.o)
                0x000054e4                __libc_fini_array
 .text          0x00005518        0x0 /usr/lib/gcc/arm-none-eabi/5.4.1/../../../arm-none-eabi/lib/armv6-m/libg.a(lib_a-impure.o)
 .text          0x00005518       0x48 /usr/lib/gcc/arm-none-eabi/5.4.1/../../../arm-none-eabi/lib/armv6-m/libg.a(lib_a-init.o)
                0x00005518                __libc_init_array
 .text          0x00005560       0x14 /usr/lib/gcc/arm-none-eabi/5.4.1/../../../arm-none-eabi/lib/armv6-m/libg.a(lib_a-lcltime.o)
                0x00005560                localtime
 .text          0x00005574      0x210 /usr/lib/gcc/arm-none-eabi/5.4.1/../../../arm-none-eabi/lib/armv6-m/libg.a(lib_a-lcltime_r.o)
                0x00005574                localtime_r
 .text          0x00005784       0x28 /usr/lib/gcc/arm-none-eabi/5.4.1/../../../arm-none-eabi/lib/armv6-m/libg.a(lib_a-malloc.o)
                0x00005784                malloc
                0x00005798                free
 .text          0x000057ac      0x54c /usr/lib/gcc/arm-none-eabi/5.4.1/../../../arm-none-eabi/lib/armv6-m/libg.a(lib_a-mallocr.o)
                0x000057ac                _malloc_r
 .text          0x00005cf8       0x7c /usr/lib/gcc/arm-none-eabi/5.4.1/../../../arm-none-eabi/lib/armv6-m/libg.a(lib_a-memcpy-stub.o)
                0x00005cf8                memcpy
 .text          0x00005d74       0x98 /usr/lib/gcc/arm-none-eabi/5.4.1/../../../arm-none-eabi/lib/armv6-m/libg.a(lib_a-memmove.o)
                0x00005d74                memmove
 .text          0x00005e0c       0x8c /usr/lib/gcc/arm-none-eabi/5.4.1/../../../arm-none-eabi/lib/armv6-m/libg.a(lib_a-memset.o)
                0x00005e0c                memset
 .text          0x00005e98        0x8 /usr/lib/gcc/arm-none-eabi/5.4.1/../../../arm-none-eabi/lib/armv6-m/libg.a(lib_a-mlock.o)
                0x00005e98                __malloc_lock
                0x00005e9c                __malloc_unlock
 .text          0x00005ea0        0x0 /usr/lib/gcc/arm-none-eabi/5.4.1/../../../arm-none-eabi/lib/armv6-m/libg.a(lib_a-month_lengths.o)
 .text          0x00005ea0       0x24 /usr/lib/gcc/arm-none-eabi/5.4.1/../../../arm-none-eabi/lib/armv6-m/libg.a(lib_a-sbrkr.o)
                0x00005ea0                _sbrk_r
 .text          0x00005ec4       0x84 /usr/lib/gcc/arm-none-eabi/5.4.1/../../../arm-none-eabi/lib/armv6-m/libg.a(lib_a-sprintf.o)
                0x00005ec4                _sprintf_r
                0x00005f04                sprintf
 .text          0x00005f48     0x17f4 /usr/lib/gcc/arm-none-eabi/5.4.1/../../../arm-none-eabi/lib/armv6-m/libg.a(lib_a-svfprintf.o)
                0x00005f48                _svfprintf_r
 .text          0x0000773c      0x194 /usr/lib/gcc/arm-none-eabi/5.4.1/../../../arm-none-eabi/lib/armv6-m/libg.a(lib_a-tzcalc_limits.o)
                0x0000773c                __tzcalc_limits
 .text          0x000078d0        0x8 /usr/lib/gcc/arm-none-eabi/5.4.1/../../../arm-none-eabi/lib/armv6-m/libg.a(lib_a-tzlock.o)
                0x000078d0                __tz_lock
                0x000078d4                __tz_unlock
 .text          0x000078d8       0x28 /usr/lib/gcc/arm-none-eabi/5.4.1/../../../arm-none-eabi/lib/armv6-m/libg.a(lib_a-tzset.o)
                0x000078d8                _tzset_unlocked
                0x000078e8                tzset
 .text          0x00007900      0x364 /usr/lib/gcc/arm-none-eabi/5.4.1/../../../arm-none-eabi/lib/armv6-m/libg.a(lib_a-tzset_r.o)
                0x00007900                _tzset_unlocked_r
                0x00007c50                _tzset_r
 .text          0x00007c64        0x0 /usr/lib/gcc/arm-none-eabi/5.4.1/../../../arm-none-eabi/lib/armv6-m/libg.a(lib_a-tzvars.o)
 .text          0x00007c64       0x94 /usr/lib/gcc/arm-none-eabi/5.4.1/../../../arm-none-eabi/lib/armv6-m/libg.a(lib_a-vsnprintf.o)
                0x00007c64                _vsnprintf_r
                0x00007cd8                vsnprintf
 .text          0x00007cf8       0xd4 /usr/lib/gcc/arm-none-eabi/5.4.1/../../../arm-none-eabi/lib/armv6-m/libg.a(lib_a-__atexit.o)
                0x00007cf8                __register_exitproc
 .text          0x00007dcc       0xfc /usr/lib/gcc/arm-none-eabi/5.4.1/../../../arm-none-eabi/lib/armv6-m/libg.a(lib_a-__call_atexit.o)
                0x00007dcc                __call_exitprocs
 .text          0x00007ec8       0x14 /usr/lib/gcc/arm-none-eabi/5.4.1/../../../arm-none-eabi/lib/armv6-m/libg.a(lib_a-asctime.o)
                0x00007ec8                asctime
 .text          0x00007edc       0x50 /usr/lib/gcc/arm-none-eabi/5.4.1/../../../arm-none-eabi/lib/armv6-m/libg.a(lib_a-asctime_r.o)
                0x00007edc                asctime_r
 .text          0x00007f2c     0x10a4 /usr/lib/gcc/arm-none-eabi/5.4.1/../../../arm-none-eabi/lib/armv6-m/libg.a(lib_a-dtoa.o)
                0x0000807c                _dtoa_r
 .text          0x00008fd0      0x264 /usr/lib/gcc/arm-none-eabi/5.4.1/../../../arm-none-eabi/lib/armv6-m/libg.a(lib_a-freer.o)
                0x00008fd0                _malloc_trim_r
                0x00009070                _free_r
 .text          0x00009234       0x9c /usr/lib/gcc/arm-none-eabi/5.4.1/../../../arm-none-eabi/lib/armv6-m/libg.a(lib_a-getenv_r.o)
                0x00009234                _findenv_r
                0x000092c0                _getenv_r
 .text          0x000092d0        0x8 /usr/lib/gcc/arm-none-eabi/5.4.1/../../../arm-none-eabi/lib/armv6-m/libg.a(lib_a-gettzinfo.o)
                0x000092d0                __gettzinfo
 .text          0x000092d8      0x184 /usr/lib/gcc/arm-none-eabi/5.4.1/../../../arm-none-eabi/lib/armv6-m/libg.a(lib_a-gmtime_r.o)
                0x000092d8                gmtime_r
 .text          0x0000945c       0x98 /usr/lib/gcc/arm-none-eabi/5.4.1/../../../arm-none-eabi/lib/armv6-m/libg.a(lib_a-locale.o)
                0x0000945c                _setlocale_r
                0x000094a0                __locale_charset
                0x000094a8                __locale_mb_cur_max
                0x000094b4                __locale_msgcharset
                0x000094c0                __locale_cjk_lang
                0x000094c4                _localeconv_r
                0x000094d0                setlocale
                0x000094e8                localeconv
 .text          0x000094f4       0x90 /usr/lib/gcc/arm-none-eabi/5.4.1/../../../arm-none-eabi/lib/armv6-m/libg.a(lib_a-memchr-stub.o)
                0x000094f4                memchr
 .text          0x00009584      0x984 /usr/lib/gcc/arm-none-eabi/5.4.1/../../../arm-none-eabi/lib/armv6-m/libg.a(lib_a-mprec.o)
                0x00009584                _Balloc
                0x000095d4                _Bfree
                0x000095e8                __multadd
                0x00009674                __s2b
                0x00009704                __hi0bits
                0x00009740                __lo0bits
                0x0000979c                __i2b
                0x000097b0                __multiply
                0x0000990c                __pow5mult
                0x000099c8                __lshift
                0x00009a88                __mcmp
                0x00009ac4                __mdiff
                0x00009be0                __ulp
                0x00009c2c                __b2d
                0x00009d04                __d2b
                0x00009dc0                __ratio
                0x00009e34                _mprec_log10
                0x00009e68                __copybits
                0x00009ea8                __any_on
 .text          0x00009f08       0xb0 /usr/lib/gcc/arm-none-eabi/5.4.1/../../../arm-none-eabi/lib/armv6-m/libg.a(lib_a-reent.o)
                0x00009f08                cleanup_glue
                0x00009f24                _reclaim_reent
 .text          0x00009fb8       0x84 /usr/lib/gcc/arm-none-eabi/5.4.1/../../../arm-none-eabi/lib/armv6-m/libg.a(lib_a-siprintf.o)
                0x00009fb8                _siprintf_r
                0x00009ff8                siprintf
 .text          0x0000a03c       0x9c /usr/lib/gcc/arm-none-eabi/5.4.1/../../../arm-none-eabi/lib/armv6-m/libg.a(lib_a-siscanf.o)
                0x0000a03c                siscanf
                0x0000a08c                _siscanf_r
 .text          0x0000a0d8       0xa0 /usr/lib/gcc/arm-none-eabi/5.4.1/../../../arm-none-eabi/lib/armv6-m/libg.a(lib_a-stdio.o)
                0x0000a0d8                __sread
                0x0000a100                __seofread
                0x0000a104                __swrite
                0x0000a140                __sseek
                0x0000a16c                __sclose
 .text          0x0000a178       0x88 /usr/lib/gcc/arm-none-eabi/5.4.1/../../../arm-none-eabi/lib/armv6-m/libg.a(lib_a-strcmp.o)
                0x0000a178                strcmp
 .text          0x0000a200       0x10 /usr/lib/gcc/arm-none-eabi/5.4.1/../../../arm-none-eabi/lib/armv6-m/libg.a(lib_a-strcpy.o)
                0x0000a200                strcpy
 .text          0x0000a210       0x68 /usr/lib/gcc/arm-none-eabi/5.4.1/../../../arm-none-eabi/lib/armv6-m/libg.a(lib_a-strlen-stub.o)
                0x0000a210                strlen
 .text          0x0000a278       0x98 /usr/lib/gcc/arm-none-eabi/5.4.1/../../../arm-none-eabi/lib/armv6-m/libg.a(lib_a-strncmp.o)
                0x0000a278                strncmp
 .text          0x0000a310      0x1a8 /usr/lib/gcc/arm-none-eabi/5.4.1/../../../arm-none-eabi/lib/armv6-m/libg.a(lib_a-strtoul.o)
                0x0000a310                _strtoul_r
                0x0000a4a0                strtoul
 .text          0x0000a4b8      0xdf8 /usr/lib/gcc/arm-none-eabi/5.4.1/../../../arm-none-eabi/lib/armv6-m/libg.a(lib_a-svfiprintf.o)
                0x0000a4b8                __ssprint_r
                0x0000a5e8                _svfiprintf_r
 .text          0x0000b2b0      0xb40 /usr/lib/gcc/arm-none-eabi/5.4.1/../../../arm-none-eabi/lib/armv6-m/libg.a(lib_a-svfiscanf.o)
                0x0000b2b0                _sungetc_r
                0x0000b334                __ssrefill_r
                0x0000b374                _sfread_r
                0x0000b400                __ssvfiscanf_r
 .text          0x0000bdf0      0x17c /usr/lib/gcc/arm-none-eabi/5.4.1/../../../arm-none-eabi/lib/armv6-m/libg.a(lib_a-ungetc.o)
                0x0000bdf0                __submore
                0x0000be74                _ungetc_r
                0x0000bf54                ungetc
 .text          0x0000bf6c       0x28 /usr/lib/gcc/arm-none-eabi/5.4.1/../../../arm-none-eabi/lib/armv6-m/libg.a(lib_a-writer.o)
                0x0000bf6c                _write_r
 .text          0x0000bf94       0x60 /usr/lib/gcc/arm-none-eabi/5.4.1/../../../arm-none-eabi/lib/armv6-m/libg.a(lib_a-callocr.o)
                0x0000bf94                _calloc_r
 .text          0x0000bff4       0x24 /usr/lib/gcc/arm-none-eabi/5.4.1/../../../arm-none-eabi/lib/armv6-m/libg.a(lib_a-closer.o)
                0x0000bff4                _close_r
 .text          0x0000c018        0x0 /usr/lib/gcc/arm-none-eabi/5.4.1/../../../arm-none-eabi/lib/armv6-m/libg.a(lib_a-ctype_.o)
 .text          0x0000c018        0x0 /usr/lib/gcc/arm-none-eabi/5.4.1/../../../arm-none-eabi/lib/armv6-m/libg.a(lib_a-environ.o)
 .text          0x0000c018        0x8 /usr/lib/gcc/arm-none-eabi/5.4.1/../../../arm-none-eabi/lib/armv6-m/libg.a(lib_a-envlock.o)
                0x0000c018                __env_lock
                0x0000c01c                __env_unlock
 .text          0x0000c020      0x1a4 /usr/lib/gcc/arm-none-eabi/5.4.1/../../../arm-none-eabi/lib/armv6-m/libg.a(lib_a-fflush.o)
                0x0000c020                __sflush_r
                0x0000c170                _fflush_r
                0x0000c19c                fflush
 .text          0x0000c1c4      0x230 /usr/lib/gcc/arm-none-eabi/5.4.1/../../../arm-none-eabi/lib/armv6-m/libg.a(lib_a-findfp.o)
                0x0000c1c8                _cleanup_r
                0x0000c2cc                __sfmoreglue
                0x0000c2fc                __sfp
                0x0000c38c                _cleanup
                0x0000c3a4                __sinit
                0x0000c3b4                __sfp_lock_acquire
                0x0000c3b8                __sfp_lock_release
                0x0000c3bc                __sinit_lock_acquire
                0x0000c3c0                __sinit_lock_release
                0x0000c3c4                __fp_lock_all
                0x0000c3dc                __fp_unlock_all
 .text          0x0000c3f4       0x90 /usr/lib/gcc/arm-none-eabi/5.4.1/../../../arm-none-eabi/lib/armv6-m/libg.a(lib_a-fwalk.o)
                0x0000c3f4                _fwalk
                0x0000c438                _fwalk_reent
 .text          0x0000c484       0x1c /usr/lib/gcc/arm-none-eabi/5.4.1/../../../arm-none-eabi/lib/armv6-m/libg.a(lib_a-iswspace.o)
                0x0000c484                iswspace
 .text          0x0000c4a0       0x28 /usr/lib/gcc/arm-none-eabi/5.4.1/../../../arm-none-eabi/lib/armv6-m/libg.a(lib_a-lseekr.o)
                0x0000c4a0                _lseek_r
 .text          0x0000c4c8       0xcc /usr/lib/gcc/arm-none-eabi/5.4.1/../../../arm-none-eabi/lib/armv6-m/libg.a(lib_a-mbrtowc.o)
                0x0000c4c8                _mbrtowc_r
                0x0000c52c                mbrtowc
 .text          0x0000c594       0x60 /usr/lib/gcc/arm-none-eabi/5.4.1/../../../arm-none-eabi/lib/armv6-m/libg.a(lib_a-mbtowc_r.o)
                0x0000c594                __ascii_mbtowc
                0x0000c5c0                _mbtowc_r
 .text          0x0000c5f4       0x28 /usr/lib/gcc/arm-none-eabi/5.4.1/../../../arm-none-eabi/lib/armv6-m/libg.a(lib_a-readr.o)
                0x0000c5f4                _read_r
 .text          0x0000c61c      0x3dc /usr/lib/gcc/arm-none-eabi/5.4.1/../../../arm-none-eabi/lib/armv6-m/libg.a(lib_a-reallocr.o)
                0x0000c61c                _realloc_r
 .text          0x0000c9f8       0x70 /usr/lib/gcc/arm-none-eabi/5.4.1/../../../arm-none-eabi/lib/armv6-m/libg.a(lib_a-sccl.o)
                0x0000c9f8                __sccl
 .text          0x0000ca68      0x190 /usr/lib/gcc/arm-none-eabi/5.4.1/../../../arm-none-eabi/lib/armv6-m/libg.a(lib_a-strtol.o)
                0x0000ca68                _strtol_r
                0x0000cbe0                strtol
 .text          0x0000cbf8      0x1d4 /usr/lib/gcc/arm-none-eabi/5.4.1/../../../arm-none-eabi/lib/armv6-m/libg.a(lib_a-strtoll_r.o)
                0x0000cbf8                _strtoll_r
 .text          0x0000cdcc      0x1e0 /usr/lib/gcc/arm-none-eabi/5.4.1/../../../arm-none-eabi/lib/armv6-m/libg.a(lib_a-strtoull_r.o)
                0x0000cdcc                _strtoull_r
 .text          0x0000cfac       0xa0 /usr/lib/gcc/arm-none-eabi/5.4.1/../../../arm-none-eabi/lib/armv6-m/libg.a(lib_a-fclose.o)
                0x0000cfac                _fclose_r
                0x0000d038                fclose
 .text          0x0000d04c      0x1d4 /usr/lib/gcc/arm-none-eabi/5.4.1/armv6-m/libgcc.a(_divsi3.o)
                0x0000d04c                __aeabi_idiv
                0x0000d04c                __divsi3
                0x0000d218                __aeabi_idivmod
 .text          0x0000d220       0x40 /usr/lib/gcc/arm-none-eabi/5.4.1/armv6-m/libgcc.a(_aeabi_uldivmod.o)
                0x0000d220                __aeabi_uldivmod
 .text          0x0000d260       0x58 /usr/lib/gcc/arm-none-eabi/5.4.1/armv6-m/libgcc.a(_muldi3.o)
                0x0000d260                __aeabi_lmul
                0x0000d260                __muldi3
 .text          0x0000d2b8      0x180 /usr/lib/gcc/arm-none-eabi/5.4.1/armv6-m/libgcc.a(_udivmoddi4.o)
                0x0000d2b8                __udivmoddi4
 .text          0x0000d438      0x658 /usr/lib/gcc/arm-none-eabi/5.4.1/armv6-m/libgcc.a(adddf3.o)
                0x0000d438                __aeabi_dadd
 .text          0x0000da90      0x6a8 /usr/lib/gcc/arm-none-eabi/5.4.1/armv6-m/libgcc.a(subdf3.o)
                0x0000da90                __aeabi_dsub
 .text          0x0000e138       0x40 /usr/lib/gcc/arm-none-eabi/5.4.1/armv6-m/libgcc.a(unorddf2.o)
                0x0000e138                __aeabi_dcmpun
 .text          0x0000e178       0x6c /usr/lib/gcc/arm-none-eabi/5.4.1/armv6-m/libgcc.a(fixdfsi.o)
                0x0000e178                __aeabi_d2iz
 .text          0x0000e1e4       0x84 /usr/lib/gcc/arm-none-eabi/5.4.1/armv6-m/libgcc.a(floatsidf.o)
                0x0000e1e4                __aeabi_i2d
 .text          0x0000e268       0x70 /usr/lib/gcc/arm-none-eabi/5.4.1/armv6-m/libgcc.a(floatunsidf.o)
                0x0000e268                __aeabi_ui2d
 .text          0x0000e2d8       0x18 /usr/lib/gcc/arm-none-eabi/5.4.1/armv6-m/libgcc.a(_clzdi2.o)
                0x0000e2d8                __clzdi2
 .text          0x0000e2f0       0x10 /usr/lib/gcc/arm-none-eabi/5.4.1/../../../arm-none-eabi/lib/armv6-m/libnosys.a(close.o)
                0x0000e2f0                _close
 .text          0x0000e300       0x10 /usr/lib/gcc/arm-none-eabi/5.4.1/../../../arm-none-eabi/lib/armv6-m/libnosys.a(lseek.o)
                0x0000e300                _lseek
 .text          0x0000e310       0x10 /usr/lib/gcc/arm-none-eabi/5.4.1/../../../arm-none-eabi/lib/armv6-m/libnosys.a(read.o)
                0x0000e310                _read
 .text          0x0000e320       0x1c /usr/lib/gcc/arm-none-eabi/5.4.1/../../../arm-none-eabi/lib/armv6-m/libnosys.a(sbrk.o)
                0x0000e320                _sbrk
 .text          0x0000e33c       0x10 /usr/lib/gcc/arm-none-eabi/5.4.1/../../../arm-none-eabi/lib/armv6-m/libnosys.a(write.o)
                0x0000e33c                _write
 .text          0x0000e34c        0x4 /usr/lib/gcc/arm-none-eabi/5.4.1/../../../arm-none-eabi/lib/armv6-m/libnosys.a(_exit.o)
                0x0000e34c                _exit
 .text          0x0000e350        0x0 /usr/lib/gcc/arm-none-eabi/5.4.1/armv6-m/crtend.o
 .text          0x0000e350        0x0 /usr/lib/gcc/arm-none-eabi/5.4.1/armv6-m/crtn.o
 *(.text*)
 .text.startup  0x0000e350       0x18 /usr/lib/gcc/arm-none-eabi/5.4.1/../../../arm-none-eabi/lib/armv6-m/libg.a(lib_a-__call_atexit.o)
 *(.rodata)
 .rodata        0x0000e368        0xb debug.o
 *fill*         0x0000e373        0x1 
 .rodata        0x0000e374       0xe0 circular_buffer.o
                0x0000e42c                CB_Status_Strings
 .rodata        0x0000e454      0x229 logger_helper.o
                0x0000e454                log_vector
                0x0000e5f4                LOG_ID_Strings
 *fill*         0x0000e67d        0x3 
 .rodata        0x0000e680       0x81 data_processing.o
 *fill*         0x0000e701        0x3 
 .rodata        0x0000e704       0x11 timestamp.o
 *fill*         0x0000e715        0x3 
 .rodata        0x0000e718      0x229 project3.o
 *fill*         0x0000e941        0x3 
 .rodata        0x0000e944       0x3c gpio.o
                0x0000e944                g_GPIO_PORT
                0x0000e958                g_PORT
 .rodata        0x0000e980       0x25 uart0.o
                0x0000e980                BUFFER_COUNT_THRESHOLD
 *fill*         0x0000e9a5        0x3 
 .rodata        0x0000e9a8       0x19 dma.o
 *fill*         0x0000e9c1        0x3 
 .rodata        0x0000e9c4       0x40 /usr/lib/gcc/arm-none-eabi/5.4.1/armv6-m/libgcc.a(divdf3.o)
 .rodata        0x0000ea04       0x40 /usr/lib/gcc/arm-none-eabi/5.4.1/armv6-m/libgcc.a(muldf3.o)
 .rodata        0x0000ea44        0x4 /usr/lib/gcc/arm-none-eabi/5.4.1/../../../arm-none-eabi/lib/armv6-m/libg.a(lib_a-impure.o)
                0x0000ea44                _global_impure_ptr
 .rodata        0x0000ea48       0x60 /usr/lib/gcc/arm-none-eabi/5.4.1/../../../arm-none-eabi/lib/armv6-m/libg.a(lib_a-month_lengths.o)
                0x0000ea48                __month_lengths
 .rodata        0x0000eaa8      0x184 /usr/lib/gcc/arm-none-eabi/5.4.1/../../../arm-none-eabi/lib/armv6-m/libg.a(lib_a-svfprintf.o)
 .rodata        0x0000ec2c       0x39 /usr/lib/gcc/arm-none-eabi/5.4.1/../../../arm-none-eabi/lib/armv6-m/libg.a(lib_a-asctime_r.o)
 *fill*         0x0000ec65        0x3 
 .rodata        0x0000ec68      0x128 /usr/lib/gcc/arm-none-eabi/5.4.1/../../../arm-none-eabi/lib/armv6-m/libg.a(lib_a-mprec.o)
                0x0000ec78                __mprec_tens
                0x0000ed40                __mprec_tinytens
                0x0000ed68                __mprec_bigtens
 .rodata        0x0000ed90      0x184 /usr/lib/gcc/arm-none-eabi/5.4.1/../../../arm-none-eabi/lib/armv6-m/libg.a(lib_a-svfiprintf.o)
 .rodata        0x0000ef14      0x33e /usr/lib/gcc/arm-none-eabi/5.4.1/../../../arm-none-eabi/lib/armv6-m/libg.a(lib_a-svfiscanf.o)
 *fill*         0x0000f252        0x2 
 .rodata        0x0000f254      0x101 /usr/lib/gcc/arm-none-eabi/5.4.1/../../../arm-none-eabi/lib/armv6-m/libg.a(lib_a-ctype_.o)
                0x0000f254                _ctype_
 *(.rodata*)
 *fill*         0x0000f355        0x3 
 .rodata.str1.4
                0x0000f358        0x2 /usr/lib/gcc/arm-none-eabi/5.4.1/../../../arm-none-eabi/lib/armv6-m/libg.a(lib_a-impure.o)
 *fill*         0x0000f35a        0x2 
 .rodata.str1.4
                0x0000f35c       0x42 /usr/lib/gcc/arm-none-eabi/5.4.1/../../../arm-none-eabi/lib/armv6-m/libg.a(lib_a-svfprintf.o)
 *fill*         0x0000f39e        0x2 
 .rodata.str1.4
                0x0000f3a0       0x53 /usr/lib/gcc/arm-none-eabi/5.4.1/../../../arm-none-eabi/lib/armv6-m/libg.a(lib_a-tzset_r.o)
 .rodata.str1.4
                0x0000f3f3        0x4 /usr/lib/gcc/arm-none-eabi/5.4.1/../../../arm-none-eabi/lib/armv6-m/libg.a(lib_a-tzvars.o)
 *fill*         0x0000f3f3        0x1 
 .rodata.str1.4
                0x0000f3f4       0x20 /usr/lib/gcc/arm-none-eabi/5.4.1/../../../arm-none-eabi/lib/armv6-m/libg.a(lib_a-asctime_r.o)
 .rodata.str1.4
                0x0000f414       0x10 /usr/lib/gcc/arm-none-eabi/5.4.1/../../../arm-none-eabi/lib/armv6-m/libg.a(lib_a-dtoa.o)
                                 0x12 (size before relaxing)
 .rodata.str1.4
                0x0000f424        0xc /usr/lib/gcc/arm-none-eabi/5.4.1/../../../arm-none-eabi/lib/armv6-m/libg.a(lib_a-locale.o)
                                 0x12 (size before relaxing)
 .rodata.str1.4
                0x0000f430       0x2f /usr/lib/gcc/arm-none-eabi/5.4.1/../../../arm-none-eabi/lib/armv6-m/libg.a(lib_a-svfiprintf.o)
 .rodata.str1.4
                0x0000f430        0x1 /usr/lib/gcc/arm-none-eabi/5.4.1/../../../arm-none-eabi/lib/armv6-m/libg.a(lib_a-mbrtowc.o)
 *(.glue_7)
 .glue_7        0x0000f430        0x0 linker stubs
 *(.glue_7t)
 .glue_7t       0x0000f430        0x0 linker stubs
 *(.eh_frame)
 .eh_frame      0x0000f430        0x0 /usr/lib/gcc/arm-none-eabi/5.4.1/armv6-m/crtbegin.o
 .eh_frame      0x0000f430        0x4 /usr/lib/gcc/arm-none-eabi/5.4.1/armv6-m/crtend.o
 *(.init)
 .init          0x0000f434        0x4 /usr/lib/gcc/arm-none-eabi/5.4.1/armv6-m/crti.o
                0x0000f434                _init
 .init          0x0000f438        0x8 /usr/lib/gcc/arm-none-eabi/5.4.1/armv6-m/crtn.o
 *(.fini)
 .fini          0x0000f440        0x4 /usr/lib/gcc/arm-none-eabi/5.4.1/armv6-m/crti.o
                0x0000f440                _fini
 .fini          0x0000f444        0x8 /usr/lib/gcc/arm-none-eabi/5.4.1/armv6-m/crtn.o
                0x0000f460                . = ALIGN (0x4)

.vfp11_veneer   0x0000f44c        0x0
 .vfp11_veneer  0x0000f44c        0x0 linker stubs

.v4_bx          0x0000f44c        0x0
 .v4_bx         0x0000f44c        0x0 linker stubs

.iplt           0x0000f44c        0x0
 .iplt          0x0000f44c        0x0 /usr/lib/gcc/arm-none-eabi/5.4.1/armv6-m/crtbegin.o

.ARM.extab      0x0000f44c        0x0
 *(.ARM.extab* .gnu.linkonce.armextab.*)
 .ARM.extab     0x0000f44c        0x0 /usr/lib/gcc/arm-none-eabi/5.4.1/../../../arm-none-eabi/lib/armv6-m/crt0.o
 .ARM.extab     0x0000f44c        0x0 /usr/lib/gcc/arm-none-eabi/5.4.1/armv6-m/libgcc.a(_udivmoddi4.o)

.ARM            0x0000f44c        0x8
                0x0000f44c                __exidx_start = .
 *(.ARM.exidx*)
 .ARM.exidx     0x0000f44c        0x8 /usr/lib/gcc/arm-none-eabi/5.4.1/../../../arm-none-eabi/lib/armv6-m/crt0.o
 .ARM.exidx     0x0000f454        0x0 /usr/lib/gcc/arm-none-eabi/5.4.1/armv6-m/libgcc.a(_udivmoddi4.o)
                                  0x8 (size before relaxing)
                0x0000f454                __exidx_end = .

.rel.dyn        0x0000f454        0x0
 .rel.iplt      0x0000f454        0x0 /usr/lib/gcc/arm-none-eabi/5.4.1/armv6-m/crtbegin.o

.ctors          0x0000f454        0x0
                0x0000f454                __CTOR_LIST__ = .
 *crtbegin.o(.ctors)
 *crtbegin?.o(.ctors)
 *(EXCLUDE_FILE(*crtend.o *crtend?.o) .ctors)
 *(SORT(.ctors.*))
 *(.ctors)
                0x0000f454                __CTOR_END__ = .

.dtors          0x0000f454        0x0
                0x0000f454                __DTOR_LIST__ = .
 *crtbegin.o(.dtors)
 *crtbegin?.o(.dtors)
 *(EXCLUDE_FILE(*crtend.o *crtend?.o) .dtors)
 *(SORT(.dtors.*))
 *(.dtors)
                0x0000f454                __DTOR_END__ = .

.preinit_array  0x0000f454        0x0
                0x0000f454                PROVIDE (__preinit_array_start, .)
 *(.preinit_array*)
                0x0000f454                PROVIDE (__preinit_array_end, .)

.init_array     0x0000f454        0x8
                0x0000f454                PROVIDE (__init_array_start, .)
 *(SORT(.init_array.*))
 .init_array.00000
                0x0000f454        0x4 /usr/lib/gcc/arm-none-eabi/5.4.1/../../../arm-none-eabi/lib/armv6-m/libg.a(lib_a-__call_atexit.o)
 *(.init_array*)
 .init_array    0x0000f458        0x4 /usr/lib/gcc/arm-none-eabi/5.4.1/armv6-m/crtbegin.o
                0x0000f45c                PROVIDE (__init_array_end, .)

.fini_array     0x0000f45c        0x4
                0x0000f45c                PROVIDE (__fini_array_start, .)
 *(SORT(.fini_array.*))
 *(.fini_array*)
 .fini_array    0x0000f45c        0x4 /usr/lib/gcc/arm-none-eabi/5.4.1/armv6-m/crtbegin.o
                0x0000f460                PROVIDE (__fini_array_end, .)
                0x0000f460                __etext = .
                0x0000f460                __DATA_ROM = .

.mtb            0x1ffff000        0x0
                0x1ffff000                . = ALIGN (0x8)
                0x1ffff000                _mtb_start = .
 *(.mtb_buf)
                0x1ffff000                . = ALIGN (0x8)
                0x1ffff000                _mtb_end = .

.data           0x1ffff000      0x92c load address 0x0000f460
                0x1ffff000                . = ALIGN (0x4)
                0x1ffff000                __DATA_RAM = .
                0x1ffff000                __data_start__ = .
 *(.data)
 .data          0x1ffff000        0x0 /usr/lib/gcc/arm-none-eabi/5.4.1/armv6-m/crti.o
 .data          0x1ffff000        0x4 /usr/lib/gcc/arm-none-eabi/5.4.1/armv6-m/crtbegin.o
                0x1ffff000                __dso_handle
 .data          0x1ffff004        0x0 /usr/lib/gcc/arm-none-eabi/5.4.1/../../../arm-none-eabi/lib/armv6-m/crt0.o
 .data          0x1ffff004        0x0 debug.o
 .data          0x1ffff004        0x0 memory.o
 .data          0x1ffff004        0x0 conversion.o
 .data          0x1ffff004        0x0 circular_buffer.o
 .data          0x1ffff004        0x0 platform.o
 .data          0x1ffff004        0x0 logger_queue.o
 .data          0x1ffff004        0x0 logger_helper.o
 .data          0x1ffff004        0x3 logger.o
                0x1ffff004                logging
                0x1ffff005                log_format
                0x1ffff006                verbose_flag
 .data          0x1ffff007        0x0 data_processing.o
 .data          0x1ffff007        0x0 timestamp.o
 .data          0x1ffff007        0x1 time_profiler.o
                0x1ffff007                tick_overflow
 .data          0x1ffff008        0x0 project3.o
 .data          0x1ffff008        0x0 main.o
 .data          0x1ffff008        0x4 system_MKL25Z4.o
                0x1ffff008                SystemCoreClock
 .data          0x1ffff00c        0x0 mcg.o
 .data          0x1ffff00c        0x0 gpio.o
 .data          0x1ffff00c        0x0 uart0.o
 .data          0x1ffff00c        0x0 dma.o
 .data          0x1ffff00c        0x0 nordic_driver.o
 .data          0x1ffff00c        0x8 spi.o
                0x1ffff00c                SPI
 .data          0x1ffff014        0x0 timer0.o
 .data          0x1ffff014        0x0 startup_MKL25Z4.o
 .data          0x1ffff014        0x0 /usr/lib/gcc/arm-none-eabi/5.4.1/armv6-m/libgcc.a(_udivsi3.o)
 .data          0x1ffff014        0x0 /usr/lib/gcc/arm-none-eabi/5.4.1/armv6-m/libgcc.a(_dvmd_tls.o)
 .data          0x1ffff014        0x0 /usr/lib/gcc/arm-none-eabi/5.4.1/armv6-m/libgcc.a(_arm_cmpdf2.o)
 .data          0x1ffff014        0x0 /usr/lib/gcc/arm-none-eabi/5.4.1/armv6-m/libgcc.a(floatunsisf.o)
 .data          0x1ffff014        0x0 /usr/lib/gcc/arm-none-eabi/5.4.1/armv6-m/libgcc.a(divdf3.o)
 .data          0x1ffff014        0x0 /usr/lib/gcc/arm-none-eabi/5.4.1/armv6-m/libgcc.a(eqdf2.o)
 .data          0x1ffff014        0x0 /usr/lib/gcc/arm-none-eabi/5.4.1/armv6-m/libgcc.a(gedf2.o)
 .data          0x1ffff014        0x0 /usr/lib/gcc/arm-none-eabi/5.4.1/armv6-m/libgcc.a(ledf2.o)
 .data          0x1ffff014        0x0 /usr/lib/gcc/arm-none-eabi/5.4.1/armv6-m/libgcc.a(muldf3.o)
 .data          0x1ffff014        0x0 /usr/lib/gcc/arm-none-eabi/5.4.1/armv6-m/libgcc.a(extendsfdf2.o)
 .data          0x1ffff014        0x0 /usr/lib/gcc/arm-none-eabi/5.4.1/armv6-m/libgcc.a(truncdfsf2.o)
 .data          0x1ffff014        0x0 /usr/lib/gcc/arm-none-eabi/5.4.1/armv6-m/libgcc.a(_clzsi2.o)
 .data          0x1ffff014        0x0 /usr/lib/gcc/arm-none-eabi/5.4.1/../../../arm-none-eabi/lib/armv6-m/libg.a(lib_a-atexit.o)
 .data          0x1ffff014        0x0 /usr/lib/gcc/arm-none-eabi/5.4.1/../../../arm-none-eabi/lib/armv6-m/libg.a(lib_a-ctime.o)
 .data          0x1ffff014        0x0 /usr/lib/gcc/arm-none-eabi/5.4.1/../../../arm-none-eabi/lib/armv6-m/libg.a(lib_a-exit.o)
 .data          0x1ffff014        0x0 /usr/lib/gcc/arm-none-eabi/5.4.1/../../../arm-none-eabi/lib/armv6-m/libg.a(lib_a-fini.o)
 *fill*         0x1ffff014        0x4 
 .data          0x1ffff018      0x430 /usr/lib/gcc/arm-none-eabi/5.4.1/../../../arm-none-eabi/lib/armv6-m/libg.a(lib_a-impure.o)
                0x1ffff018                _impure_ptr
 .data          0x1ffff448        0x0 /usr/lib/gcc/arm-none-eabi/5.4.1/../../../arm-none-eabi/lib/armv6-m/libg.a(lib_a-init.o)
 .data          0x1ffff448        0x0 /usr/lib/gcc/arm-none-eabi/5.4.1/../../../arm-none-eabi/lib/armv6-m/libg.a(lib_a-lcltime.o)
 .data          0x1ffff448        0x0 /usr/lib/gcc/arm-none-eabi/5.4.1/../../../arm-none-eabi/lib/armv6-m/libg.a(lib_a-lcltime_r.o)
 .data          0x1ffff448        0x0 /usr/lib/gcc/arm-none-eabi/5.4.1/../../../arm-none-eabi/lib/armv6-m/libg.a(lib_a-malloc.o)
 .data          0x1ffff448      0x410 /usr/lib/gcc/arm-none-eabi/5.4.1/../../../arm-none-eabi/lib/armv6-m/libg.a(lib_a-mallocr.o)
                0x1ffff448                __malloc_av_
                0x1ffff850                __malloc_sbrk_base
                0x1ffff854                __malloc_trim_threshold
 .data          0x1ffff858        0x0 /usr/lib/gcc/arm-none-eabi/5.4.1/../../../arm-none-eabi/lib/armv6-m/libg.a(lib_a-memcpy-stub.o)
 .data          0x1ffff858        0x0 /usr/lib/gcc/arm-none-eabi/5.4.1/../../../arm-none-eabi/lib/armv6-m/libg.a(lib_a-memmove.o)
 .data          0x1ffff858        0x0 /usr/lib/gcc/arm-none-eabi/5.4.1/../../../arm-none-eabi/lib/armv6-m/libg.a(lib_a-memset.o)
 .data          0x1ffff858        0x0 /usr/lib/gcc/arm-none-eabi/5.4.1/../../../arm-none-eabi/lib/armv6-m/libg.a(lib_a-mlock.o)
 .data          0x1ffff858        0x0 /usr/lib/gcc/arm-none-eabi/5.4.1/../../../arm-none-eabi/lib/armv6-m/libg.a(lib_a-month_lengths.o)
 .data          0x1ffff858        0x0 /usr/lib/gcc/arm-none-eabi/5.4.1/../../../arm-none-eabi/lib/armv6-m/libg.a(lib_a-sbrkr.o)
 .data          0x1ffff858        0x0 /usr/lib/gcc/arm-none-eabi/5.4.1/../../../arm-none-eabi/lib/armv6-m/libg.a(lib_a-sprintf.o)
 .data          0x1ffff858        0x0 /usr/lib/gcc/arm-none-eabi/5.4.1/../../../arm-none-eabi/lib/armv6-m/libg.a(lib_a-svfprintf.o)
 .data          0x1ffff858        0x0 /usr/lib/gcc/arm-none-eabi/5.4.1/../../../arm-none-eabi/lib/armv6-m/libg.a(lib_a-tzcalc_limits.o)
 .data          0x1ffff858        0x0 /usr/lib/gcc/arm-none-eabi/5.4.1/../../../arm-none-eabi/lib/armv6-m/libg.a(lib_a-tzlock.o)
 .data          0x1ffff858        0x0 /usr/lib/gcc/arm-none-eabi/5.4.1/../../../arm-none-eabi/lib/armv6-m/libg.a(lib_a-tzset.o)
 .data          0x1ffff858        0x0 /usr/lib/gcc/arm-none-eabi/5.4.1/../../../arm-none-eabi/lib/armv6-m/libg.a(lib_a-tzset_r.o)
 .data          0x1ffff858        0x8 /usr/lib/gcc/arm-none-eabi/5.4.1/../../../arm-none-eabi/lib/armv6-m/libg.a(lib_a-tzvars.o)
                0x1ffff858                _tzname
 .data          0x1ffff860        0x0 /usr/lib/gcc/arm-none-eabi/5.4.1/../../../arm-none-eabi/lib/armv6-m/libg.a(lib_a-vsnprintf.o)
 .data          0x1ffff860        0x0 /usr/lib/gcc/arm-none-eabi/5.4.1/../../../arm-none-eabi/lib/armv6-m/libg.a(lib_a-__atexit.o)
 .data          0x1ffff860        0x0 /usr/lib/gcc/arm-none-eabi/5.4.1/../../../arm-none-eabi/lib/armv6-m/libg.a(lib_a-__call_atexit.o)
 .data          0x1ffff860        0x0 /usr/lib/gcc/arm-none-eabi/5.4.1/../../../arm-none-eabi/lib/armv6-m/libg.a(lib_a-asctime.o)
 .data          0x1ffff860        0x0 /usr/lib/gcc/arm-none-eabi/5.4.1/../../../arm-none-eabi/lib/armv6-m/libg.a(lib_a-asctime_r.o)
 .data          0x1ffff860        0x0 /usr/lib/gcc/arm-none-eabi/5.4.1/../../../arm-none-eabi/lib/armv6-m/libg.a(lib_a-dtoa.o)
 .data          0x1ffff860        0x0 /usr/lib/gcc/arm-none-eabi/5.4.1/../../../arm-none-eabi/lib/armv6-m/libg.a(lib_a-freer.o)
 .data          0x1ffff860        0x0 /usr/lib/gcc/arm-none-eabi/5.4.1/../../../arm-none-eabi/lib/armv6-m/libg.a(lib_a-getenv_r.o)
 .data          0x1ffff860       0x40 /usr/lib/gcc/arm-none-eabi/5.4.1/../../../arm-none-eabi/lib/armv6-m/libg.a(lib_a-gettzinfo.o)
 .data          0x1ffff8a0        0x0 /usr/lib/gcc/arm-none-eabi/5.4.1/../../../arm-none-eabi/lib/armv6-m/libg.a(lib_a-gmtime_r.o)
 .data          0x1ffff8a0       0x7c /usr/lib/gcc/arm-none-eabi/5.4.1/../../../arm-none-eabi/lib/armv6-m/libg.a(lib_a-locale.o)
                0x1ffff8c0                __mb_cur_max
 .data          0x1ffff91c        0x0 /usr/lib/gcc/arm-none-eabi/5.4.1/../../../arm-none-eabi/lib/armv6-m/libg.a(lib_a-memchr-stub.o)
 .data          0x1ffff91c        0x0 /usr/lib/gcc/arm-none-eabi/5.4.1/../../../arm-none-eabi/lib/armv6-m/libg.a(lib_a-mprec.o)
 .data          0x1ffff91c        0x0 /usr/lib/gcc/arm-none-eabi/5.4.1/../../../arm-none-eabi/lib/armv6-m/libg.a(lib_a-reent.o)
 .data          0x1ffff91c        0x0 /usr/lib/gcc/arm-none-eabi/5.4.1/../../../arm-none-eabi/lib/armv6-m/libg.a(lib_a-siprintf.o)
 .data          0x1ffff91c        0x0 /usr/lib/gcc/arm-none-eabi/5.4.1/../../../arm-none-eabi/lib/armv6-m/libg.a(lib_a-siscanf.o)
 .data          0x1ffff91c        0x0 /usr/lib/gcc/arm-none-eabi/5.4.1/../../../arm-none-eabi/lib/armv6-m/libg.a(lib_a-stdio.o)
 .data          0x1ffff91c        0x0 /usr/lib/gcc/arm-none-eabi/5.4.1/../../../arm-none-eabi/lib/armv6-m/libg.a(lib_a-strcmp.o)
 .data          0x1ffff91c        0x0 /usr/lib/gcc/arm-none-eabi/5.4.1/../../../arm-none-eabi/lib/armv6-m/libg.a(lib_a-strcpy.o)
 .data          0x1ffff91c        0x0 /usr/lib/gcc/arm-none-eabi/5.4.1/../../../arm-none-eabi/lib/armv6-m/libg.a(lib_a-strlen-stub.o)
 .data          0x1ffff91c        0x0 /usr/lib/gcc/arm-none-eabi/5.4.1/../../../arm-none-eabi/lib/armv6-m/libg.a(lib_a-strncmp.o)
 .data          0x1ffff91c        0x0 /usr/lib/gcc/arm-none-eabi/5.4.1/../../../arm-none-eabi/lib/armv6-m/libg.a(lib_a-strtoul.o)
 .data          0x1ffff91c        0x0 /usr/lib/gcc/arm-none-eabi/5.4.1/../../../arm-none-eabi/lib/armv6-m/libg.a(lib_a-svfiprintf.o)
 .data          0x1ffff91c        0x0 /usr/lib/gcc/arm-none-eabi/5.4.1/../../../arm-none-eabi/lib/armv6-m/libg.a(lib_a-svfiscanf.o)
 .data          0x1ffff91c        0x0 /usr/lib/gcc/arm-none-eabi/5.4.1/../../../arm-none-eabi/lib/armv6-m/libg.a(lib_a-ungetc.o)
 .data          0x1ffff91c        0x0 /usr/lib/gcc/arm-none-eabi/5.4.1/../../../arm-none-eabi/lib/armv6-m/libg.a(lib_a-writer.o)
 .data          0x1ffff91c        0x0 /usr/lib/gcc/arm-none-eabi/5.4.1/../../../arm-none-eabi/lib/armv6-m/libg.a(lib_a-callocr.o)
 .data          0x1ffff91c        0x0 /usr/lib/gcc/arm-none-eabi/5.4.1/../../../arm-none-eabi/lib/armv6-m/libg.a(lib_a-closer.o)
 .data          0x1ffff91c        0x4 /usr/lib/gcc/arm-none-eabi/5.4.1/../../../arm-none-eabi/lib/armv6-m/libg.a(lib_a-ctype_.o)
                0x1ffff91c                __ctype_ptr__
 .data          0x1ffff920        0x4 /usr/lib/gcc/arm-none-eabi/5.4.1/../../../arm-none-eabi/lib/armv6-m/libg.a(lib_a-environ.o)
                0x1ffff920                environ
 .data          0x1ffff924        0x0 /usr/lib/gcc/arm-none-eabi/5.4.1/../../../arm-none-eabi/lib/armv6-m/libg.a(lib_a-envlock.o)
 .data          0x1ffff924        0x0 /usr/lib/gcc/arm-none-eabi/5.4.1/../../../arm-none-eabi/lib/armv6-m/libg.a(lib_a-fflush.o)
 .data          0x1ffff924        0x0 /usr/lib/gcc/arm-none-eabi/5.4.1/../../../arm-none-eabi/lib/armv6-m/libg.a(lib_a-findfp.o)
 .data          0x1ffff924        0x0 /usr/lib/gcc/arm-none-eabi/5.4.1/../../../arm-none-eabi/lib/armv6-m/libg.a(lib_a-fwalk.o)
 .data          0x1ffff924        0x0 /usr/lib/gcc/arm-none-eabi/5.4.1/../../../arm-none-eabi/lib/armv6-m/libg.a(lib_a-iswspace.o)
 .data          0x1ffff924        0x0 /usr/lib/gcc/arm-none-eabi/5.4.1/../../../arm-none-eabi/lib/armv6-m/libg.a(lib_a-lseekr.o)
 .data          0x1ffff924        0x0 /usr/lib/gcc/arm-none-eabi/5.4.1/../../../arm-none-eabi/lib/armv6-m/libg.a(lib_a-mbrtowc.o)
 .data          0x1ffff924        0x4 /usr/lib/gcc/arm-none-eabi/5.4.1/../../../arm-none-eabi/lib/armv6-m/libg.a(lib_a-mbtowc_r.o)
                0x1ffff924                __mbtowc
 .data          0x1ffff928        0x0 /usr/lib/gcc/arm-none-eabi/5.4.1/../../../arm-none-eabi/lib/armv6-m/libg.a(lib_a-readr.o)
 .data          0x1ffff928        0x0 /usr/lib/gcc/arm-none-eabi/5.4.1/../../../arm-none-eabi/lib/armv6-m/libg.a(lib_a-reallocr.o)
 .data          0x1ffff928        0x0 /usr/lib/gcc/arm-none-eabi/5.4.1/../../../arm-none-eabi/lib/armv6-m/libg.a(lib_a-sccl.o)
 .data          0x1ffff928        0x0 /usr/lib/gcc/arm-none-eabi/5.4.1/../../../arm-none-eabi/lib/armv6-m/libg.a(lib_a-strtol.o)
 .data          0x1ffff928        0x0 /usr/lib/gcc/arm-none-eabi/5.4.1/../../../arm-none-eabi/lib/armv6-m/libg.a(lib_a-strtoll_r.o)
 .data          0x1ffff928        0x0 /usr/lib/gcc/arm-none-eabi/5.4.1/../../../arm-none-eabi/lib/armv6-m/libg.a(lib_a-strtoull_r.o)
 .data          0x1ffff928        0x0 /usr/lib/gcc/arm-none-eabi/5.4.1/../../../arm-none-eabi/lib/armv6-m/libg.a(lib_a-fclose.o)
 .data          0x1ffff928        0x0 /usr/lib/gcc/arm-none-eabi/5.4.1/armv6-m/libgcc.a(_divsi3.o)
 .data          0x1ffff928        0x0 /usr/lib/gcc/arm-none-eabi/5.4.1/armv6-m/libgcc.a(_aeabi_uldivmod.o)
 .data          0x1ffff928        0x0 /usr/lib/gcc/arm-none-eabi/5.4.1/armv6-m/libgcc.a(_muldi3.o)
 .data          0x1ffff928        0x0 /usr/lib/gcc/arm-none-eabi/5.4.1/armv6-m/libgcc.a(_udivmoddi4.o)
 .data          0x1ffff928        0x0 /usr/lib/gcc/arm-none-eabi/5.4.1/armv6-m/libgcc.a(adddf3.o)
 .data          0x1ffff928        0x0 /usr/lib/gcc/arm-none-eabi/5.4.1/armv6-m/libgcc.a(subdf3.o)
 .data          0x1ffff928        0x0 /usr/lib/gcc/arm-none-eabi/5.4.1/armv6-m/libgcc.a(unorddf2.o)
 .data          0x1ffff928        0x0 /usr/lib/gcc/arm-none-eabi/5.4.1/armv6-m/libgcc.a(fixdfsi.o)
 .data          0x1ffff928        0x0 /usr/lib/gcc/arm-none-eabi/5.4.1/armv6-m/libgcc.a(floatsidf.o)
 .data          0x1ffff928        0x0 /usr/lib/gcc/arm-none-eabi/5.4.1/armv6-m/libgcc.a(floatunsidf.o)
 .data          0x1ffff928        0x0 /usr/lib/gcc/arm-none-eabi/5.4.1/armv6-m/libgcc.a(_clzdi2.o)
 .data          0x1ffff928        0x0 /usr/lib/gcc/arm-none-eabi/5.4.1/../../../arm-none-eabi/lib/armv6-m/libnosys.a(close.o)
 .data          0x1ffff928        0x0 /usr/lib/gcc/arm-none-eabi/5.4.1/../../../arm-none-eabi/lib/armv6-m/libnosys.a(lseek.o)
 .data          0x1ffff928        0x0 /usr/lib/gcc/arm-none-eabi/5.4.1/../../../arm-none-eabi/lib/armv6-m/libnosys.a(read.o)
 .data          0x1ffff928        0x0 /usr/lib/gcc/arm-none-eabi/5.4.1/../../../arm-none-eabi/lib/armv6-m/libnosys.a(sbrk.o)
 .data          0x1ffff928        0x0 /usr/lib/gcc/arm-none-eabi/5.4.1/../../../arm-none-eabi/lib/armv6-m/libnosys.a(write.o)
 .data          0x1ffff928        0x0 /usr/lib/gcc/arm-none-eabi/5.4.1/../../../arm-none-eabi/lib/armv6-m/libnosys.a(_exit.o)
 .data          0x1ffff928        0x0 /usr/lib/gcc/arm-none-eabi/5.4.1/armv6-m/crtend.o
 .data          0x1ffff928        0x0 /usr/lib/gcc/arm-none-eabi/5.4.1/armv6-m/crtn.o
 *(.data*)
 *(.jcr*)
 .jcr           0x1ffff928        0x0 /usr/lib/gcc/arm-none-eabi/5.4.1/armv6-m/crtbegin.o
 .jcr           0x1ffff928        0x4 /usr/lib/gcc/arm-none-eabi/5.4.1/armv6-m/crtend.o
                0x1ffff92c                . = ALIGN (0x4)
                0x1ffff92c                __data_end__ = .
                0x0000fd8c                __DATA_END = (__DATA_ROM + (__data_end__ - __data_start__))

.tm_clone_table
                0x1ffff92c        0x0 load address 0x0000fd8c
 .tm_clone_table
                0x1ffff92c        0x0 /usr/lib/gcc/arm-none-eabi/5.4.1/armv6-m/crtbegin.o
 .tm_clone_table
                0x1ffff92c        0x0 /usr/lib/gcc/arm-none-eabi/5.4.1/armv6-m/crtend.o

.igot.plt       0x1ffff92c        0x0 load address 0x0000fd8c
 .igot.plt      0x1ffff92c        0x0 /usr/lib/gcc/arm-none-eabi/5.4.1/armv6-m/crtbegin.o

.bss            0x1ffff92c       0xcc load address 0x0000fd8c
                0x1ffff92c                . = ALIGN (0x4)
                0x1ffff92c                __START_BSS = .
                0x1ffff92c                __bss_start__ = .
 *(.bss)
 .bss           0x1ffff92c        0x0 /usr/lib/gcc/arm-none-eabi/5.4.1/armv6-m/crti.o
 .bss           0x1ffff92c       0x1c /usr/lib/gcc/arm-none-eabi/5.4.1/armv6-m/crtbegin.o
 .bss           0x1ffff948        0x0 /usr/lib/gcc/arm-none-eabi/5.4.1/../../../arm-none-eabi/lib/armv6-m/crt0.o
 .bss           0x1ffff948        0x0 debug.o
 .bss           0x1ffff948        0x1 memory.o
                0x1ffff948                dma_setValue
 .bss           0x1ffff949        0x0 conversion.o
 .bss           0x1ffff949        0x0 circular_buffer.o
 .bss           0x1ffff949        0x0 platform.o
 .bss           0x1ffff949        0x0 logger_queue.o
 .bss           0x1ffff949        0x0 logger_helper.o
 .bss           0x1ffff949        0x0 logger.o
 .bss           0x1ffff949        0x0 data_processing.o
 .bss           0x1ffff949        0x0 timestamp.o
 .bss           0x1ffff949        0x0 time_profiler.o
 .bss           0x1ffff949        0x0 project3.o
 .bss           0x1ffff949        0x0 main.o
 .bss           0x1ffff949        0x0 system_MKL25Z4.o
 .bss           0x1ffff949        0x0 mcg.o
 .bss           0x1ffff949        0x0 gpio.o
 *fill*         0x1ffff949        0x3 
 .bss           0x1ffff94c       0x2d uart0.o
                0x1ffff94c                UART0_TX_buffer
                0x1ffff950                UART0_RX_buffer
                0x1ffff954                processDataNow
                0x1ffff955                RX_bufferDataCount
                0x1ffff956                bufferSet
 *fill*         0x1ffff979        0x3 
 .bss           0x1ffff97c        0xc dma.o
                0x1ffff97c                DMA_CurrentState
                0x1ffff980                tickStart
                0x1ffff984                tickEnd
 .bss           0x1ffff988        0x0 nordic_driver.o
 .bss           0x1ffff988        0x0 spi.o
 .bss           0x1ffff988        0x0 timer0.o
 .bss           0x1ffff988        0x0 startup_MKL25Z4.o
 .bss           0x1ffff988        0x0 /usr/lib/gcc/arm-none-eabi/5.4.1/armv6-m/libgcc.a(_udivsi3.o)
 .bss           0x1ffff988        0x0 /usr/lib/gcc/arm-none-eabi/5.4.1/armv6-m/libgcc.a(_dvmd_tls.o)
 .bss           0x1ffff988        0x0 /usr/lib/gcc/arm-none-eabi/5.4.1/armv6-m/libgcc.a(_arm_cmpdf2.o)
 .bss           0x1ffff988        0x0 /usr/lib/gcc/arm-none-eabi/5.4.1/armv6-m/libgcc.a(floatunsisf.o)
 .bss           0x1ffff988        0x0 /usr/lib/gcc/arm-none-eabi/5.4.1/armv6-m/libgcc.a(divdf3.o)
 .bss           0x1ffff988        0x0 /usr/lib/gcc/arm-none-eabi/5.4.1/armv6-m/libgcc.a(eqdf2.o)
 .bss           0x1ffff988        0x0 /usr/lib/gcc/arm-none-eabi/5.4.1/armv6-m/libgcc.a(gedf2.o)
 .bss           0x1ffff988        0x0 /usr/lib/gcc/arm-none-eabi/5.4.1/armv6-m/libgcc.a(ledf2.o)
 .bss           0x1ffff988        0x0 /usr/lib/gcc/arm-none-eabi/5.4.1/armv6-m/libgcc.a(muldf3.o)
 .bss           0x1ffff988        0x0 /usr/lib/gcc/arm-none-eabi/5.4.1/armv6-m/libgcc.a(extendsfdf2.o)
 .bss           0x1ffff988        0x0 /usr/lib/gcc/arm-none-eabi/5.4.1/armv6-m/libgcc.a(truncdfsf2.o)
 .bss           0x1ffff988        0x0 /usr/lib/gcc/arm-none-eabi/5.4.1/armv6-m/libgcc.a(_clzsi2.o)
 .bss           0x1ffff988        0x0 /usr/lib/gcc/arm-none-eabi/5.4.1/../../../arm-none-eabi/lib/armv6-m/libg.a(lib_a-atexit.o)
 .bss           0x1ffff988        0x0 /usr/lib/gcc/arm-none-eabi/5.4.1/../../../arm-none-eabi/lib/armv6-m/libg.a(lib_a-ctime.o)
 .bss           0x1ffff988        0x0 /usr/lib/gcc/arm-none-eabi/5.4.1/../../../arm-none-eabi/lib/armv6-m/libg.a(lib_a-exit.o)
 .bss           0x1ffff988        0x0 /usr/lib/gcc/arm-none-eabi/5.4.1/../../../arm-none-eabi/lib/armv6-m/libg.a(lib_a-fini.o)
 .bss           0x1ffff988        0x0 /usr/lib/gcc/arm-none-eabi/5.4.1/../../../arm-none-eabi/lib/armv6-m/libg.a(lib_a-impure.o)
 .bss           0x1ffff988        0x0 /usr/lib/gcc/arm-none-eabi/5.4.1/../../../arm-none-eabi/lib/armv6-m/libg.a(lib_a-init.o)
 .bss           0x1ffff988        0x0 /usr/lib/gcc/arm-none-eabi/5.4.1/../../../arm-none-eabi/lib/armv6-m/libg.a(lib_a-lcltime.o)
 .bss           0x1ffff988        0x0 /usr/lib/gcc/arm-none-eabi/5.4.1/../../../arm-none-eabi/lib/armv6-m/libg.a(lib_a-lcltime_r.o)
 .bss           0x1ffff988        0x0 /usr/lib/gcc/arm-none-eabi/5.4.1/../../../arm-none-eabi/lib/armv6-m/libg.a(lib_a-malloc.o)
 .bss           0x1ffff988       0x34 /usr/lib/gcc/arm-none-eabi/5.4.1/../../../arm-none-eabi/lib/armv6-m/libg.a(lib_a-mallocr.o)
                0x1ffff988                __malloc_top_pad
                0x1ffff98c                __malloc_current_mallinfo
                0x1ffff9b4                __malloc_max_sbrked_mem
                0x1ffff9b8                __malloc_max_total_mem
 .bss           0x1ffff9bc        0x0 /usr/lib/gcc/arm-none-eabi/5.4.1/../../../arm-none-eabi/lib/armv6-m/libg.a(lib_a-memcpy-stub.o)
 .bss           0x1ffff9bc        0x0 /usr/lib/gcc/arm-none-eabi/5.4.1/../../../arm-none-eabi/lib/armv6-m/libg.a(lib_a-memmove.o)
 .bss           0x1ffff9bc        0x0 /usr/lib/gcc/arm-none-eabi/5.4.1/../../../arm-none-eabi/lib/armv6-m/libg.a(lib_a-memset.o)
 .bss           0x1ffff9bc        0x0 /usr/lib/gcc/arm-none-eabi/5.4.1/../../../arm-none-eabi/lib/armv6-m/libg.a(lib_a-mlock.o)
 .bss           0x1ffff9bc        0x0 /usr/lib/gcc/arm-none-eabi/5.4.1/../../../arm-none-eabi/lib/armv6-m/libg.a(lib_a-month_lengths.o)
 .bss           0x1ffff9bc        0x0 /usr/lib/gcc/arm-none-eabi/5.4.1/../../../arm-none-eabi/lib/armv6-m/libg.a(lib_a-sbrkr.o)
 .bss           0x1ffff9bc        0x0 /usr/lib/gcc/arm-none-eabi/5.4.1/../../../arm-none-eabi/lib/armv6-m/libg.a(lib_a-sprintf.o)
 .bss           0x1ffff9bc        0x0 /usr/lib/gcc/arm-none-eabi/5.4.1/../../../arm-none-eabi/lib/armv6-m/libg.a(lib_a-svfprintf.o)
 .bss           0x1ffff9bc        0x0 /usr/lib/gcc/arm-none-eabi/5.4.1/../../../arm-none-eabi/lib/armv6-m/libg.a(lib_a-tzcalc_limits.o)
 .bss           0x1ffff9bc        0x0 /usr/lib/gcc/arm-none-eabi/5.4.1/../../../arm-none-eabi/lib/armv6-m/libg.a(lib_a-tzlock.o)
 .bss           0x1ffff9bc        0x0 /usr/lib/gcc/arm-none-eabi/5.4.1/../../../arm-none-eabi/lib/armv6-m/libg.a(lib_a-tzset.o)
 .bss           0x1ffff9bc       0x1b /usr/lib/gcc/arm-none-eabi/5.4.1/../../../arm-none-eabi/lib/armv6-m/libg.a(lib_a-tzset_r.o)
 *fill*         0x1ffff9d7        0x1 
 .bss           0x1ffff9d8        0x8 /usr/lib/gcc/arm-none-eabi/5.4.1/../../../arm-none-eabi/lib/armv6-m/libg.a(lib_a-tzvars.o)
                0x1ffff9d8                _timezone
                0x1ffff9dc                _daylight
 .bss           0x1ffff9e0        0x0 /usr/lib/gcc/arm-none-eabi/5.4.1/../../../arm-none-eabi/lib/armv6-m/libg.a(lib_a-vsnprintf.o)
 .bss           0x1ffff9e0        0x0 /usr/lib/gcc/arm-none-eabi/5.4.1/../../../arm-none-eabi/lib/armv6-m/libg.a(lib_a-__atexit.o)
 .bss           0x1ffff9e0        0x0 /usr/lib/gcc/arm-none-eabi/5.4.1/../../../arm-none-eabi/lib/armv6-m/libg.a(lib_a-__call_atexit.o)
 .bss           0x1ffff9e0        0x0 /usr/lib/gcc/arm-none-eabi/5.4.1/../../../arm-none-eabi/lib/armv6-m/libg.a(lib_a-asctime.o)
 .bss           0x1ffff9e0        0x0 /usr/lib/gcc/arm-none-eabi/5.4.1/../../../arm-none-eabi/lib/armv6-m/libg.a(lib_a-asctime_r.o)
 .bss           0x1ffff9e0        0x0 /usr/lib/gcc/arm-none-eabi/5.4.1/../../../arm-none-eabi/lib/armv6-m/libg.a(lib_a-dtoa.o)
 .bss           0x1ffff9e0        0x0 /usr/lib/gcc/arm-none-eabi/5.4.1/../../../arm-none-eabi/lib/armv6-m/libg.a(lib_a-freer.o)
 .bss           0x1ffff9e0        0x0 /usr/lib/gcc/arm-none-eabi/5.4.1/../../../arm-none-eabi/lib/armv6-m/libg.a(lib_a-getenv_r.o)
 .bss           0x1ffff9e0        0x0 /usr/lib/gcc/arm-none-eabi/5.4.1/../../../arm-none-eabi/lib/armv6-m/libg.a(lib_a-gettzinfo.o)
 .bss           0x1ffff9e0        0x0 /usr/lib/gcc/arm-none-eabi/5.4.1/../../../arm-none-eabi/lib/armv6-m/libg.a(lib_a-gmtime_r.o)
 .bss           0x1ffff9e0        0xc /usr/lib/gcc/arm-none-eabi/5.4.1/../../../arm-none-eabi/lib/armv6-m/libg.a(lib_a-locale.o)
                0x1ffff9e0                _PathLocale
                0x1ffff9e4                __mlocale_changed
                0x1ffff9e8                __nlocale_changed
 .bss           0x1ffff9ec        0x0 /usr/lib/gcc/arm-none-eabi/5.4.1/../../../arm-none-eabi/lib/armv6-m/libg.a(lib_a-memchr-stub.o)
 .bss           0x1ffff9ec        0x0 /usr/lib/gcc/arm-none-eabi/5.4.1/../../../arm-none-eabi/lib/armv6-m/libg.a(lib_a-mprec.o)
 .bss           0x1ffff9ec        0x0 /usr/lib/gcc/arm-none-eabi/5.4.1/../../../arm-none-eabi/lib/armv6-m/libg.a(lib_a-reent.o)
 .bss           0x1ffff9ec        0x0 /usr/lib/gcc/arm-none-eabi/5.4.1/../../../arm-none-eabi/lib/armv6-m/libg.a(lib_a-siprintf.o)
 .bss           0x1ffff9ec        0x0 /usr/lib/gcc/arm-none-eabi/5.4.1/../../../arm-none-eabi/lib/armv6-m/libg.a(lib_a-siscanf.o)
 .bss           0x1ffff9ec        0x0 /usr/lib/gcc/arm-none-eabi/5.4.1/../../../arm-none-eabi/lib/armv6-m/libg.a(lib_a-stdio.o)
 .bss           0x1ffff9ec        0x0 /usr/lib/gcc/arm-none-eabi/5.4.1/../../../arm-none-eabi/lib/armv6-m/libg.a(lib_a-strcmp.o)
 .bss           0x1ffff9ec        0x0 /usr/lib/gcc/arm-none-eabi/5.4.1/../../../arm-none-eabi/lib/armv6-m/libg.a(lib_a-strcpy.o)
 .bss           0x1ffff9ec        0x0 /usr/lib/gcc/arm-none-eabi/5.4.1/../../../arm-none-eabi/lib/armv6-m/libg.a(lib_a-strlen-stub.o)
 .bss           0x1ffff9ec        0x0 /usr/lib/gcc/arm-none-eabi/5.4.1/../../../arm-none-eabi/lib/armv6-m/libg.a(lib_a-strncmp.o)
 .bss           0x1ffff9ec        0x0 /usr/lib/gcc/arm-none-eabi/5.4.1/../../../arm-none-eabi/lib/armv6-m/libg.a(lib_a-strtoul.o)
 .bss           0x1ffff9ec        0x0 /usr/lib/gcc/arm-none-eabi/5.4.1/../../../arm-none-eabi/lib/armv6-m/libg.a(lib_a-svfiprintf.o)
 .bss           0x1ffff9ec        0x0 /usr/lib/gcc/arm-none-eabi/5.4.1/../../../arm-none-eabi/lib/armv6-m/libg.a(lib_a-svfiscanf.o)
 .bss           0x1ffff9ec        0x0 /usr/lib/gcc/arm-none-eabi/5.4.1/../../../arm-none-eabi/lib/armv6-m/libg.a(lib_a-ungetc.o)
 .bss           0x1ffff9ec        0x0 /usr/lib/gcc/arm-none-eabi/5.4.1/../../../arm-none-eabi/lib/armv6-m/libg.a(lib_a-writer.o)
 .bss           0x1ffff9ec        0x0 /usr/lib/gcc/arm-none-eabi/5.4.1/../../../arm-none-eabi/lib/armv6-m/libg.a(lib_a-callocr.o)
 .bss           0x1ffff9ec        0x0 /usr/lib/gcc/arm-none-eabi/5.4.1/../../../arm-none-eabi/lib/armv6-m/libg.a(lib_a-closer.o)
 .bss           0x1ffff9ec        0x0 /usr/lib/gcc/arm-none-eabi/5.4.1/../../../arm-none-eabi/lib/armv6-m/libg.a(lib_a-ctype_.o)
 .bss           0x1ffff9ec        0x4 /usr/lib/gcc/arm-none-eabi/5.4.1/../../../arm-none-eabi/lib/armv6-m/libg.a(lib_a-environ.o)
 .bss           0x1ffff9f0        0x0 /usr/lib/gcc/arm-none-eabi/5.4.1/../../../arm-none-eabi/lib/armv6-m/libg.a(lib_a-envlock.o)
 .bss           0x1ffff9f0        0x0 /usr/lib/gcc/arm-none-eabi/5.4.1/../../../arm-none-eabi/lib/armv6-m/libg.a(lib_a-fflush.o)
 .bss           0x1ffff9f0        0x0 /usr/lib/gcc/arm-none-eabi/5.4.1/../../../arm-none-eabi/lib/armv6-m/libg.a(lib_a-findfp.o)
 .bss           0x1ffff9f0        0x0 /usr/lib/gcc/arm-none-eabi/5.4.1/../../../arm-none-eabi/lib/armv6-m/libg.a(lib_a-fwalk.o)
 .bss           0x1ffff9f0        0x0 /usr/lib/gcc/arm-none-eabi/5.4.1/../../../arm-none-eabi/lib/armv6-m/libg.a(lib_a-iswspace.o)
 .bss           0x1ffff9f0        0x0 /usr/lib/gcc/arm-none-eabi/5.4.1/../../../arm-none-eabi/lib/armv6-m/libg.a(lib_a-lseekr.o)
 .bss           0x1ffff9f0        0x0 /usr/lib/gcc/arm-none-eabi/5.4.1/../../../arm-none-eabi/lib/armv6-m/libg.a(lib_a-mbrtowc.o)
 .bss           0x1ffff9f0        0x0 /usr/lib/gcc/arm-none-eabi/5.4.1/../../../arm-none-eabi/lib/armv6-m/libg.a(lib_a-mbtowc_r.o)
 .bss           0x1ffff9f0        0x0 /usr/lib/gcc/arm-none-eabi/5.4.1/../../../arm-none-eabi/lib/armv6-m/libg.a(lib_a-readr.o)
 .bss           0x1ffff9f0        0x0 /usr/lib/gcc/arm-none-eabi/5.4.1/../../../arm-none-eabi/lib/armv6-m/libg.a(lib_a-reallocr.o)
 .bss           0x1ffff9f0        0x0 /usr/lib/gcc/arm-none-eabi/5.4.1/../../../arm-none-eabi/lib/armv6-m/libg.a(lib_a-sccl.o)
 .bss           0x1ffff9f0        0x0 /usr/lib/gcc/arm-none-eabi/5.4.1/../../../arm-none-eabi/lib/armv6-m/libg.a(lib_a-strtol.o)
 .bss           0x1ffff9f0        0x0 /usr/lib/gcc/arm-none-eabi/5.4.1/../../../arm-none-eabi/lib/armv6-m/libg.a(lib_a-strtoll_r.o)
 .bss           0x1ffff9f0        0x0 /usr/lib/gcc/arm-none-eabi/5.4.1/../../../arm-none-eabi/lib/armv6-m/libg.a(lib_a-strtoull_r.o)
 .bss           0x1ffff9f0        0x0 /usr/lib/gcc/arm-none-eabi/5.4.1/../../../arm-none-eabi/lib/armv6-m/libg.a(lib_a-fclose.o)
 .bss           0x1ffff9f0        0x0 /usr/lib/gcc/arm-none-eabi/5.4.1/armv6-m/libgcc.a(_divsi3.o)
 .bss           0x1ffff9f0        0x0 /usr/lib/gcc/arm-none-eabi/5.4.1/armv6-m/libgcc.a(_aeabi_uldivmod.o)
 .bss           0x1ffff9f0        0x0 /usr/lib/gcc/arm-none-eabi/5.4.1/armv6-m/libgcc.a(_muldi3.o)
 .bss           0x1ffff9f0        0x0 /usr/lib/gcc/arm-none-eabi/5.4.1/armv6-m/libgcc.a(_udivmoddi4.o)
 .bss           0x1ffff9f0        0x0 /usr/lib/gcc/arm-none-eabi/5.4.1/armv6-m/libgcc.a(adddf3.o)
 .bss           0x1ffff9f0        0x0 /usr/lib/gcc/arm-none-eabi/5.4.1/armv6-m/libgcc.a(subdf3.o)
 .bss           0x1ffff9f0        0x0 /usr/lib/gcc/arm-none-eabi/5.4.1/armv6-m/libgcc.a(unorddf2.o)
 .bss           0x1ffff9f0        0x0 /usr/lib/gcc/arm-none-eabi/5.4.1/armv6-m/libgcc.a(fixdfsi.o)
 .bss           0x1ffff9f0        0x0 /usr/lib/gcc/arm-none-eabi/5.4.1/armv6-m/libgcc.a(floatsidf.o)
 .bss           0x1ffff9f0        0x0 /usr/lib/gcc/arm-none-eabi/5.4.1/armv6-m/libgcc.a(floatunsidf.o)
 .bss           0x1ffff9f0        0x0 /usr/lib/gcc/arm-none-eabi/5.4.1/armv6-m/libgcc.a(_clzdi2.o)
 .bss           0x1ffff9f0        0x0 /usr/lib/gcc/arm-none-eabi/5.4.1/../../../arm-none-eabi/lib/armv6-m/libnosys.a(close.o)
 .bss           0x1ffff9f0        0x0 /usr/lib/gcc/arm-none-eabi/5.4.1/../../../arm-none-eabi/lib/armv6-m/libnosys.a(lseek.o)
 .bss           0x1ffff9f0        0x0 /usr/lib/gcc/arm-none-eabi/5.4.1/../../../arm-none-eabi/lib/armv6-m/libnosys.a(read.o)
 .bss           0x1ffff9f0        0x4 /usr/lib/gcc/arm-none-eabi/5.4.1/../../../arm-none-eabi/lib/armv6-m/libnosys.a(sbrk.o)
 .bss           0x1ffff9f4        0x0 /usr/lib/gcc/arm-none-eabi/5.4.1/../../../arm-none-eabi/lib/armv6-m/libnosys.a(write.o)
 .bss           0x1ffff9f4        0x0 /usr/lib/gcc/arm-none-eabi/5.4.1/../../../arm-none-eabi/lib/armv6-m/libnosys.a(_exit.o)
 .bss           0x1ffff9f4        0x0 /usr/lib/gcc/arm-none-eabi/5.4.1/armv6-m/crtend.o
 .bss           0x1ffff9f4        0x0 /usr/lib/gcc/arm-none-eabi/5.4.1/armv6-m/crtn.o
 *(.bss*)
 *(COMMON)
 COMMON         0x1ffff9f4        0x0 memory.o
 COMMON         0x1ffff9f4        0x0 platform.o
 COMMON         0x1ffff9f4        0x0 project3.o
 COMMON         0x1ffff9f4        0x4 /usr/lib/gcc/arm-none-eabi/5.4.1/../../../arm-none-eabi/lib/armv6-m/libg.a(lib_a-reent.o)
                0x1ffff9f4                errno
                0x1ffff9f8                . = ALIGN (0x4)
                0x1ffff9f8                __bss_end__ = .
                0x1ffff9f8                __END_BSS = .

.heap           0x1ffff9f8     0x3200 load address 0x0000fe58
                0x1ffff9f8                . = ALIGN (0x8)
                0x1ffff9f8                __end__ = .
                0x1ffff9f8                PROVIDE (end, .)
                0x1ffff9f8                __HeapBase = .
                0x20002bf8                . = (. + HEAP_SIZE)
 *fill*         0x1ffff9f8     0x3200 
                0x20002bf8                __HeapLimit = .

.stack          0x20002bf8      0x400 load address 0x00013058
                0x20002bf8                . = ALIGN (0x8)
                0x20002ff8                . = (. + STACK_SIZE)
 *fill*         0x20002bf8      0x400 
                0x20003000                __StackTop = (ORIGIN (m_data) + LENGTH (m_data))
                0x20002c00                __StackLimit = (__StackTop - STACK_SIZE)
                0x20003000                PROVIDE (__stack, __StackTop)

.ARM.attributes
                0x00000000       0x28
 *(.ARM.attributes)
 .ARM.attributes
                0x00000000       0x1e /usr/lib/gcc/arm-none-eabi/5.4.1/armv6-m/crti.o
 .ARM.attributes
                0x0000001e       0x2c /usr/lib/gcc/arm-none-eabi/5.4.1/armv6-m/crtbegin.o
 .ARM.attributes
                0x0000004a       0x1b /usr/lib/gcc/arm-none-eabi/5.4.1/../../../arm-none-eabi/lib/armv6-m/crt0.o
 .ARM.attributes
                0x00000065       0x32 debug.o
 .ARM.attributes
                0x00000097       0x32 memory.o
 .ARM.attributes
                0x000000c9       0x32 conversion.o
 .ARM.attributes
                0x000000fb       0x32 circular_buffer.o
 .ARM.attributes
                0x0000012d       0x32 platform.o
 .ARM.attributes
                0x0000015f       0x32 logger_queue.o
 .ARM.attributes
                0x00000191       0x32 logger_helper.o
 .ARM.attributes
                0x000001c3       0x32 logger.o
 .ARM.attributes
                0x000001f5       0x32 data_processing.o
 .ARM.attributes
                0x00000227       0x32 timestamp.o
 .ARM.attributes
                0x00000259       0x32 time_profiler.o
 .ARM.attributes
                0x0000028b       0x32 project3.o
 .ARM.attributes
                0x000002bd       0x32 main.o
 .ARM.attributes
                0x000002ef       0x32 system_MKL25Z4.o
 .ARM.attributes
                0x00000321       0x32 mcg.o
 .ARM.attributes
                0x00000353       0x32 gpio.o
 .ARM.attributes
                0x00000385       0x32 uart0.o
 .ARM.attributes
                0x000003b7       0x32 dma.o
 .ARM.attributes
                0x000003e9       0x32 nordic_driver.o
 .ARM.attributes
                0x0000041b       0x32 spi.o
 .ARM.attributes
                0x0000044d       0x32 timer0.o
 .ARM.attributes
                0x0000047f       0x1b startup_MKL25Z4.o
 .ARM.attributes
                0x0000049a       0x1e /usr/lib/gcc/arm-none-eabi/5.4.1/armv6-m/libgcc.a(_udivsi3.o)
 .ARM.attributes
                0x000004b8       0x1e /usr/lib/gcc/arm-none-eabi/5.4.1/armv6-m/libgcc.a(_dvmd_tls.o)
 .ARM.attributes
                0x000004d6       0x1e /usr/lib/gcc/arm-none-eabi/5.4.1/armv6-m/libgcc.a(_arm_cmpdf2.o)
 .ARM.attributes
                0x000004f4       0x2c /usr/lib/gcc/arm-none-eabi/5.4.1/armv6-m/libgcc.a(floatunsisf.o)
 .ARM.attributes
                0x00000520       0x2c /usr/lib/gcc/arm-none-eabi/5.4.1/armv6-m/libgcc.a(divdf3.o)
 .ARM.attributes
                0x0000054c       0x2c /usr/lib/gcc/arm-none-eabi/5.4.1/armv6-m/libgcc.a(eqdf2.o)
 .ARM.attributes
                0x00000578       0x2c /usr/lib/gcc/arm-none-eabi/5.4.1/armv6-m/libgcc.a(gedf2.o)
 .ARM.attributes
                0x000005a4       0x2c /usr/lib/gcc/arm-none-eabi/5.4.1/armv6-m/libgcc.a(ledf2.o)
 .ARM.attributes
                0x000005d0       0x2c /usr/lib/gcc/arm-none-eabi/5.4.1/armv6-m/libgcc.a(muldf3.o)
 .ARM.attributes
                0x000005fc       0x2c /usr/lib/gcc/arm-none-eabi/5.4.1/armv6-m/libgcc.a(extendsfdf2.o)
 .ARM.attributes
                0x00000628       0x2c /usr/lib/gcc/arm-none-eabi/5.4.1/armv6-m/libgcc.a(truncdfsf2.o)
 .ARM.attributes
                0x00000654       0x1e /usr/lib/gcc/arm-none-eabi/5.4.1/armv6-m/libgcc.a(_clzsi2.o)
 .ARM.attributes
                0x00000672       0x2c /usr/lib/gcc/arm-none-eabi/5.4.1/../../../arm-none-eabi/lib/armv6-m/libg.a(lib_a-atexit.o)
 .ARM.attributes
                0x0000069e       0x2c /usr/lib/gcc/arm-none-eabi/5.4.1/../../../arm-none-eabi/lib/armv6-m/libg.a(lib_a-ctime.o)
 .ARM.attributes
                0x000006ca       0x2c /usr/lib/gcc/arm-none-eabi/5.4.1/../../../arm-none-eabi/lib/armv6-m/libg.a(lib_a-exit.o)
 .ARM.attributes
                0x000006f6       0x2c /usr/lib/gcc/arm-none-eabi/5.4.1/../../../arm-none-eabi/lib/armv6-m/libg.a(lib_a-fini.o)
 .ARM.attributes
                0x00000722       0x2c /usr/lib/gcc/arm-none-eabi/5.4.1/../../../arm-none-eabi/lib/armv6-m/libg.a(lib_a-impure.o)
 .ARM.attributes
                0x0000074e       0x2c /usr/lib/gcc/arm-none-eabi/5.4.1/../../../arm-none-eabi/lib/armv6-m/libg.a(lib_a-init.o)
 .ARM.attributes
                0x0000077a       0x2c /usr/lib/gcc/arm-none-eabi/5.4.1/../../../arm-none-eabi/lib/armv6-m/libg.a(lib_a-lcltime.o)
 .ARM.attributes
                0x000007a6       0x2c /usr/lib/gcc/arm-none-eabi/5.4.1/../../../arm-none-eabi/lib/armv6-m/libg.a(lib_a-lcltime_r.o)
 .ARM.attributes
                0x000007d2       0x2c /usr/lib/gcc/arm-none-eabi/5.4.1/../../../arm-none-eabi/lib/armv6-m/libg.a(lib_a-malloc.o)
 .ARM.attributes
                0x000007fe       0x2c /usr/lib/gcc/arm-none-eabi/5.4.1/../../../arm-none-eabi/lib/armv6-m/libg.a(lib_a-mallocr.o)
 .ARM.attributes
                0x0000082a       0x2c /usr/lib/gcc/arm-none-eabi/5.4.1/../../../arm-none-eabi/lib/armv6-m/libg.a(lib_a-memcpy-stub.o)
 .ARM.attributes
                0x00000856       0x2c /usr/lib/gcc/arm-none-eabi/5.4.1/../../../arm-none-eabi/lib/armv6-m/libg.a(lib_a-memmove.o)
 .ARM.attributes
                0x00000882       0x2c /usr/lib/gcc/arm-none-eabi/5.4.1/../../../arm-none-eabi/lib/armv6-m/libg.a(lib_a-memset.o)
 .ARM.attributes
                0x000008ae       0x2c /usr/lib/gcc/arm-none-eabi/5.4.1/../../../arm-none-eabi/lib/armv6-m/libg.a(lib_a-mlock.o)
 .ARM.attributes
                0x000008da       0x2c /usr/lib/gcc/arm-none-eabi/5.4.1/../../../arm-none-eabi/lib/armv6-m/libg.a(lib_a-month_lengths.o)
 .ARM.attributes
                0x00000906       0x2c /usr/lib/gcc/arm-none-eabi/5.4.1/../../../arm-none-eabi/lib/armv6-m/libg.a(lib_a-sbrkr.o)
 .ARM.attributes
                0x00000932       0x2c /usr/lib/gcc/arm-none-eabi/5.4.1/../../../arm-none-eabi/lib/armv6-m/libg.a(lib_a-sprintf.o)
 .ARM.attributes
                0x0000095e       0x2c /usr/lib/gcc/arm-none-eabi/5.4.1/../../../arm-none-eabi/lib/armv6-m/libg.a(lib_a-svfprintf.o)
 .ARM.attributes
                0x0000098a       0x2c /usr/lib/gcc/arm-none-eabi/5.4.1/../../../arm-none-eabi/lib/armv6-m/libg.a(lib_a-tzcalc_limits.o)
 .ARM.attributes
                0x000009b6       0x2c /usr/lib/gcc/arm-none-eabi/5.4.1/../../../arm-none-eabi/lib/armv6-m/libg.a(lib_a-tzlock.o)
 .ARM.attributes
                0x000009e2       0x2c /usr/lib/gcc/arm-none-eabi/5.4.1/../../../arm-none-eabi/lib/armv6-m/libg.a(lib_a-tzset.o)
 .ARM.attributes
                0x00000a0e       0x2c /usr/lib/gcc/arm-none-eabi/5.4.1/../../../arm-none-eabi/lib/armv6-m/libg.a(lib_a-tzset_r.o)
 .ARM.attributes
                0x00000a3a       0x2c /usr/lib/gcc/arm-none-eabi/5.4.1/../../../arm-none-eabi/lib/armv6-m/libg.a(lib_a-tzvars.o)
 .ARM.attributes
                0x00000a66       0x2c /usr/lib/gcc/arm-none-eabi/5.4.1/../../../arm-none-eabi/lib/armv6-m/libg.a(lib_a-vsnprintf.o)
 .ARM.attributes
                0x00000a92       0x2c /usr/lib/gcc/arm-none-eabi/5.4.1/../../../arm-none-eabi/lib/armv6-m/libg.a(lib_a-__atexit.o)
 .ARM.attributes
                0x00000abe       0x2c /usr/lib/gcc/arm-none-eabi/5.4.1/../../../arm-none-eabi/lib/armv6-m/libg.a(lib_a-__call_atexit.o)
 .ARM.attributes
                0x00000aea       0x2c /usr/lib/gcc/arm-none-eabi/5.4.1/../../../arm-none-eabi/lib/armv6-m/libg.a(lib_a-asctime.o)
 .ARM.attributes
                0x00000b16       0x2c /usr/lib/gcc/arm-none-eabi/5.4.1/../../../arm-none-eabi/lib/armv6-m/libg.a(lib_a-asctime_r.o)
 .ARM.attributes
                0x00000b42       0x2c /usr/lib/gcc/arm-none-eabi/5.4.1/../../../arm-none-eabi/lib/armv6-m/libg.a(lib_a-dtoa.o)
 .ARM.attributes
                0x00000b6e       0x2c /usr/lib/gcc/arm-none-eabi/5.4.1/../../../arm-none-eabi/lib/armv6-m/libg.a(lib_a-freer.o)
 .ARM.attributes
                0x00000b9a       0x2c /usr/lib/gcc/arm-none-eabi/5.4.1/../../../arm-none-eabi/lib/armv6-m/libg.a(lib_a-getenv_r.o)
 .ARM.attributes
                0x00000bc6       0x2c /usr/lib/gcc/arm-none-eabi/5.4.1/../../../arm-none-eabi/lib/armv6-m/libg.a(lib_a-gettzinfo.o)
 .ARM.attributes
                0x00000bf2       0x2c /usr/lib/gcc/arm-none-eabi/5.4.1/../../../arm-none-eabi/lib/armv6-m/libg.a(lib_a-gmtime_r.o)
 .ARM.attributes
                0x00000c1e       0x2c /usr/lib/gcc/arm-none-eabi/5.4.1/../../../arm-none-eabi/lib/armv6-m/libg.a(lib_a-locale.o)
 .ARM.attributes
                0x00000c4a       0x2c /usr/lib/gcc/arm-none-eabi/5.4.1/../../../arm-none-eabi/lib/armv6-m/libg.a(lib_a-memchr-stub.o)
 .ARM.attributes
                0x00000c76       0x2c /usr/lib/gcc/arm-none-eabi/5.4.1/../../../arm-none-eabi/lib/armv6-m/libg.a(lib_a-mprec.o)
 .ARM.attributes
                0x00000ca2       0x2c /usr/lib/gcc/arm-none-eabi/5.4.1/../../../arm-none-eabi/lib/armv6-m/libg.a(lib_a-reent.o)
 .ARM.attributes
                0x00000cce       0x2c /usr/lib/gcc/arm-none-eabi/5.4.1/../../../arm-none-eabi/lib/armv6-m/libg.a(lib_a-siprintf.o)
 .ARM.attributes
                0x00000cfa       0x2c /usr/lib/gcc/arm-none-eabi/5.4.1/../../../arm-none-eabi/lib/armv6-m/libg.a(lib_a-siscanf.o)
 .ARM.attributes
                0x00000d26       0x2c /usr/lib/gcc/arm-none-eabi/5.4.1/../../../arm-none-eabi/lib/armv6-m/libg.a(lib_a-stdio.o)
 .ARM.attributes
                0x00000d52       0x1b /usr/lib/gcc/arm-none-eabi/5.4.1/../../../arm-none-eabi/lib/armv6-m/libg.a(lib_a-strcmp.o)
 .ARM.attributes
                0x00000d6d       0x2c /usr/lib/gcc/arm-none-eabi/5.4.1/../../../arm-none-eabi/lib/armv6-m/libg.a(lib_a-strcpy.o)
 .ARM.attributes
                0x00000d99       0x2c /usr/lib/gcc/arm-none-eabi/5.4.1/../../../arm-none-eabi/lib/armv6-m/libg.a(lib_a-strlen-stub.o)
 .ARM.attributes
                0x00000dc5       0x2c /usr/lib/gcc/arm-none-eabi/5.4.1/../../../arm-none-eabi/lib/armv6-m/libg.a(lib_a-strncmp.o)
 .ARM.attributes
                0x00000df1       0x2c /usr/lib/gcc/arm-none-eabi/5.4.1/../../../arm-none-eabi/lib/armv6-m/libg.a(lib_a-strtoul.o)
 .ARM.attributes
                0x00000e1d       0x2c /usr/lib/gcc/arm-none-eabi/5.4.1/../../../arm-none-eabi/lib/armv6-m/libg.a(lib_a-svfiprintf.o)
 .ARM.attributes
                0x00000e49       0x2c /usr/lib/gcc/arm-none-eabi/5.4.1/../../../arm-none-eabi/lib/armv6-m/libg.a(lib_a-svfiscanf.o)
 .ARM.attributes
                0x00000e75       0x2c /usr/lib/gcc/arm-none-eabi/5.4.1/../../../arm-none-eabi/lib/armv6-m/libg.a(lib_a-ungetc.o)
 .ARM.attributes
                0x00000ea1       0x2c /usr/lib/gcc/arm-none-eabi/5.4.1/../../../arm-none-eabi/lib/armv6-m/libg.a(lib_a-writer.o)
 .ARM.attributes
                0x00000ecd       0x2c /usr/lib/gcc/arm-none-eabi/5.4.1/../../../arm-none-eabi/lib/armv6-m/libg.a(lib_a-callocr.o)
 .ARM.attributes
                0x00000ef9       0x2c /usr/lib/gcc/arm-none-eabi/5.4.1/../../../arm-none-eabi/lib/armv6-m/libg.a(lib_a-closer.o)
 .ARM.attributes
                0x00000f25       0x2c /usr/lib/gcc/arm-none-eabi/5.4.1/../../../arm-none-eabi/lib/armv6-m/libg.a(lib_a-ctype_.o)
 .ARM.attributes
                0x00000f51       0x2c /usr/lib/gcc/arm-none-eabi/5.4.1/../../../arm-none-eabi/lib/armv6-m/libg.a(lib_a-environ.o)
 .ARM.attributes
                0x00000f7d       0x2c /usr/lib/gcc/arm-none-eabi/5.4.1/../../../arm-none-eabi/lib/armv6-m/libg.a(lib_a-envlock.o)
 .ARM.attributes
                0x00000fa9       0x2c /usr/lib/gcc/arm-none-eabi/5.4.1/../../../arm-none-eabi/lib/armv6-m/libg.a(lib_a-fflush.o)
 .ARM.attributes
                0x00000fd5       0x2c /usr/lib/gcc/arm-none-eabi/5.4.1/../../../arm-none-eabi/lib/armv6-m/libg.a(lib_a-findfp.o)
 .ARM.attributes
                0x00001001       0x2c /usr/lib/gcc/arm-none-eabi/5.4.1/../../../arm-none-eabi/lib/armv6-m/libg.a(lib_a-fwalk.o)
 .ARM.attributes
                0x0000102d       0x2c /usr/lib/gcc/arm-none-eabi/5.4.1/../../../arm-none-eabi/lib/armv6-m/libg.a(lib_a-iswspace.o)
 .ARM.attributes
                0x00001059       0x2c /usr/lib/gcc/arm-none-eabi/5.4.1/../../../arm-none-eabi/lib/armv6-m/libg.a(lib_a-lseekr.o)
 .ARM.attributes
                0x00001085       0x2c /usr/lib/gcc/arm-none-eabi/5.4.1/../../../arm-none-eabi/lib/armv6-m/libg.a(lib_a-mbrtowc.o)
 .ARM.attributes
                0x000010b1       0x2c /usr/lib/gcc/arm-none-eabi/5.4.1/../../../arm-none-eabi/lib/armv6-m/libg.a(lib_a-mbtowc_r.o)
 .ARM.attributes
                0x000010dd       0x2c /usr/lib/gcc/arm-none-eabi/5.4.1/../../../arm-none-eabi/lib/armv6-m/libg.a(lib_a-readr.o)
 .ARM.attributes
                0x00001109       0x2c /usr/lib/gcc/arm-none-eabi/5.4.1/../../../arm-none-eabi/lib/armv6-m/libg.a(lib_a-reallocr.o)
 .ARM.attributes
                0x00001135       0x2c /usr/lib/gcc/arm-none-eabi/5.4.1/../../../arm-none-eabi/lib/armv6-m/libg.a(lib_a-sccl.o)
 .ARM.attributes
                0x00001161       0x2c /usr/lib/gcc/arm-none-eabi/5.4.1/../../../arm-none-eabi/lib/armv6-m/libg.a(lib_a-strtol.o)
 .ARM.attributes
                0x0000118d       0x2c /usr/lib/gcc/arm-none-eabi/5.4.1/../../../arm-none-eabi/lib/armv6-m/libg.a(lib_a-strtoll_r.o)
 .ARM.attributes
                0x000011b9       0x2c /usr/lib/gcc/arm-none-eabi/5.4.1/../../../arm-none-eabi/lib/armv6-m/libg.a(lib_a-strtoull_r.o)
 .ARM.attributes
                0x000011e5       0x2c /usr/lib/gcc/arm-none-eabi/5.4.1/../../../arm-none-eabi/lib/armv6-m/libg.a(lib_a-fclose.o)
 .ARM.attributes
                0x00001211       0x1e /usr/lib/gcc/arm-none-eabi/5.4.1/armv6-m/libgcc.a(_divsi3.o)
 .ARM.attributes
                0x0000122f       0x1e /usr/lib/gcc/arm-none-eabi/5.4.1/armv6-m/libgcc.a(_aeabi_uldivmod.o)
 .ARM.attributes
                0x0000124d       0x2c /usr/lib/gcc/arm-none-eabi/5.4.1/armv6-m/libgcc.a(_muldi3.o)
 .ARM.attributes
                0x00001279       0x2c /usr/lib/gcc/arm-none-eabi/5.4.1/armv6-m/libgcc.a(_udivmoddi4.o)
 .ARM.attributes
                0x000012a5       0x2c /usr/lib/gcc/arm-none-eabi/5.4.1/armv6-m/libgcc.a(adddf3.o)
 .ARM.attributes
                0x000012d1       0x2c /usr/lib/gcc/arm-none-eabi/5.4.1/armv6-m/libgcc.a(subdf3.o)
 .ARM.attributes
                0x000012fd       0x2c /usr/lib/gcc/arm-none-eabi/5.4.1/armv6-m/libgcc.a(unorddf2.o)
 .ARM.attributes
                0x00001329       0x2c /usr/lib/gcc/arm-none-eabi/5.4.1/armv6-m/libgcc.a(fixdfsi.o)
 .ARM.attributes
                0x00001355       0x2c /usr/lib/gcc/arm-none-eabi/5.4.1/armv6-m/libgcc.a(floatsidf.o)
 .ARM.attributes
                0x00001381       0x2c /usr/lib/gcc/arm-none-eabi/5.4.1/armv6-m/libgcc.a(floatunsidf.o)
 .ARM.attributes
                0x000013ad       0x1e /usr/lib/gcc/arm-none-eabi/5.4.1/armv6-m/libgcc.a(_clzdi2.o)
 .ARM.attributes
                0x000013cb       0x2c /usr/lib/gcc/arm-none-eabi/5.4.1/../../../arm-none-eabi/lib/armv6-m/libnosys.a(close.o)
 .ARM.attributes
                0x000013f7       0x2c /usr/lib/gcc/arm-none-eabi/5.4.1/../../../arm-none-eabi/lib/armv6-m/libnosys.a(lseek.o)
 .ARM.attributes
                0x00001423       0x2c /usr/lib/gcc/arm-none-eabi/5.4.1/../../../arm-none-eabi/lib/armv6-m/libnosys.a(read.o)
 .ARM.attributes
                0x0000144f       0x2c /usr/lib/gcc/arm-none-eabi/5.4.1/../../../arm-none-eabi/lib/armv6-m/libnosys.a(sbrk.o)
 .ARM.attributes
                0x0000147b       0x2c /usr/lib/gcc/arm-none-eabi/5.4.1/../../../arm-none-eabi/lib/armv6-m/libnosys.a(write.o)
 .ARM.attributes
                0x000014a7       0x2c /usr/lib/gcc/arm-none-eabi/5.4.1/../../../arm-none-eabi/lib/armv6-m/libnosys.a(_exit.o)
 .ARM.attributes
                0x000014d3       0x2c /usr/lib/gcc/arm-none-eabi/5.4.1/armv6-m/crtend.o
 .ARM.attributes
                0x000014ff       0x1e /usr/lib/gcc/arm-none-eabi/5.4.1/armv6-m/crtn.o
                0x00000001                ASSERT ((__StackLimit >= __HeapLimit), region m_data overflowed with stack and heap)
OUTPUT(project3.elf elf32-littlearm)

.comment        0x00000000       0x2b
 .comment       0x00000000       0x2b /usr/lib/gcc/arm-none-eabi/5.4.1/armv6-m/crtbegin.o
                                 0x2c (size before relaxing)
 .comment       0x0000002b       0x2c debug.o
 .comment       0x0000002b       0x2c memory.o
 .comment       0x0000002b       0x2c conversion.o
 .comment       0x0000002b       0x2c circular_buffer.o
 .comment       0x0000002b       0x2c platform.o
 .comment       0x0000002b       0x2c logger_queue.o
 .comment       0x0000002b       0x2c logger_helper.o
 .comment       0x0000002b       0x2c logger.o
 .comment       0x0000002b       0x2c data_processing.o
 .comment       0x0000002b       0x2c timestamp.o
 .comment       0x0000002b       0x2c time_profiler.o
 .comment       0x0000002b       0x2c project3.o
 .comment       0x0000002b       0x2c main.o
 .comment       0x0000002b       0x2c system_MKL25Z4.o
 .comment       0x0000002b       0x2c mcg.o
 .comment       0x0000002b       0x2c gpio.o
 .comment       0x0000002b       0x2c uart0.o
 .comment       0x0000002b       0x2c dma.o
 .comment       0x0000002b       0x2c nordic_driver.o
 .comment       0x0000002b       0x2c spi.o
 .comment       0x0000002b       0x2c timer0.o
 .comment       0x0000002b       0x2c /usr/lib/gcc/arm-none-eabi/5.4.1/armv6-m/libgcc.a(floatunsisf.o)
 .comment       0x0000002b       0x2c /usr/lib/gcc/arm-none-eabi/5.4.1/armv6-m/libgcc.a(divdf3.o)
 .comment       0x0000002b       0x2c /usr/lib/gcc/arm-none-eabi/5.4.1/armv6-m/libgcc.a(eqdf2.o)
 .comment       0x0000002b       0x2c /usr/lib/gcc/arm-none-eabi/5.4.1/armv6-m/libgcc.a(gedf2.o)
 .comment       0x0000002b       0x2c /usr/lib/gcc/arm-none-eabi/5.4.1/armv6-m/libgcc.a(ledf2.o)
 .comment       0x0000002b       0x2c /usr/lib/gcc/arm-none-eabi/5.4.1/armv6-m/libgcc.a(muldf3.o)
 .comment       0x0000002b       0x2c /usr/lib/gcc/arm-none-eabi/5.4.1/armv6-m/libgcc.a(extendsfdf2.o)
 .comment       0x0000002b       0x2c /usr/lib/gcc/arm-none-eabi/5.4.1/armv6-m/libgcc.a(truncdfsf2.o)
 .comment       0x0000002b       0x2c /usr/lib/gcc/arm-none-eabi/5.4.1/../../../arm-none-eabi/lib/armv6-m/libg.a(lib_a-atexit.o)
 .comment       0x0000002b       0x2c /usr/lib/gcc/arm-none-eabi/5.4.1/../../../arm-none-eabi/lib/armv6-m/libg.a(lib_a-ctime.o)
 .comment       0x0000002b       0x2c /usr/lib/gcc/arm-none-eabi/5.4.1/../../../arm-none-eabi/lib/armv6-m/libg.a(lib_a-exit.o)
 .comment       0x0000002b       0x2c /usr/lib/gcc/arm-none-eabi/5.4.1/../../../arm-none-eabi/lib/armv6-m/libg.a(lib_a-fini.o)
 .comment       0x0000002b       0x2c /usr/lib/gcc/arm-none-eabi/5.4.1/../../../arm-none-eabi/lib/armv6-m/libg.a(lib_a-impure.o)
 .comment       0x0000002b       0x2c /usr/lib/gcc/arm-none-eabi/5.4.1/../../../arm-none-eabi/lib/armv6-m/libg.a(lib_a-init.o)
 .comment       0x0000002b       0x2c /usr/lib/gcc/arm-none-eabi/5.4.1/../../../arm-none-eabi/lib/armv6-m/libg.a(lib_a-lcltime.o)
 .comment       0x0000002b       0x2c /usr/lib/gcc/arm-none-eabi/5.4.1/../../../arm-none-eabi/lib/armv6-m/libg.a(lib_a-lcltime_r.o)
 .comment       0x0000002b       0x2c /usr/lib/gcc/arm-none-eabi/5.4.1/../../../arm-none-eabi/lib/armv6-m/libg.a(lib_a-malloc.o)
 .comment       0x0000002b       0x2c /usr/lib/gcc/arm-none-eabi/5.4.1/../../../arm-none-eabi/lib/armv6-m/libg.a(lib_a-mallocr.o)
 .comment       0x0000002b       0x2c /usr/lib/gcc/arm-none-eabi/5.4.1/../../../arm-none-eabi/lib/armv6-m/libg.a(lib_a-memcpy-stub.o)
 .comment       0x0000002b       0x2c /usr/lib/gcc/arm-none-eabi/5.4.1/../../../arm-none-eabi/lib/armv6-m/libg.a(lib_a-memmove.o)
 .comment       0x0000002b       0x2c /usr/lib/gcc/arm-none-eabi/5.4.1/../../../arm-none-eabi/lib/armv6-m/libg.a(lib_a-memset.o)
 .comment       0x0000002b       0x2c /usr/lib/gcc/arm-none-eabi/5.4.1/../../../arm-none-eabi/lib/armv6-m/libg.a(lib_a-mlock.o)
 .comment       0x0000002b       0x2c /usr/lib/gcc/arm-none-eabi/5.4.1/../../../arm-none-eabi/lib/armv6-m/libg.a(lib_a-month_lengths.o)
 .comment       0x0000002b       0x2c /usr/lib/gcc/arm-none-eabi/5.4.1/../../../arm-none-eabi/lib/armv6-m/libg.a(lib_a-sbrkr.o)
 .comment       0x0000002b       0x2c /usr/lib/gcc/arm-none-eabi/5.4.1/../../../arm-none-eabi/lib/armv6-m/libg.a(lib_a-sprintf.o)
 .comment       0x0000002b       0x2c /usr/lib/gcc/arm-none-eabi/5.4.1/../../../arm-none-eabi/lib/armv6-m/libg.a(lib_a-svfprintf.o)
 .comment       0x0000002b       0x2c /usr/lib/gcc/arm-none-eabi/5.4.1/../../../arm-none-eabi/lib/armv6-m/libg.a(lib_a-tzcalc_limits.o)
 .comment       0x0000002b       0x2c /usr/lib/gcc/arm-none-eabi/5.4.1/../../../arm-none-eabi/lib/armv6-m/libg.a(lib_a-tzlock.o)
 .comment       0x0000002b       0x2c /usr/lib/gcc/arm-none-eabi/5.4.1/../../../arm-none-eabi/lib/armv6-m/libg.a(lib_a-tzset.o)
 .comment       0x0000002b       0x2c /usr/lib/gcc/arm-none-eabi/5.4.1/../../../arm-none-eabi/lib/armv6-m/libg.a(lib_a-tzset_r.o)
 .comment       0x0000002b       0x2c /usr/lib/gcc/arm-none-eabi/5.4.1/../../../arm-none-eabi/lib/armv6-m/libg.a(lib_a-tzvars.o)
 .comment       0x0000002b       0x2c /usr/lib/gcc/arm-none-eabi/5.4.1/../../../arm-none-eabi/lib/armv6-m/libg.a(lib_a-vsnprintf.o)
 .comment       0x0000002b       0x2c /usr/lib/gcc/arm-none-eabi/5.4.1/../../../arm-none-eabi/lib/armv6-m/libg.a(lib_a-__atexit.o)
 .comment       0x0000002b       0x2c /usr/lib/gcc/arm-none-eabi/5.4.1/../../../arm-none-eabi/lib/armv6-m/libg.a(lib_a-__call_atexit.o)
 .comment       0x0000002b       0x2c /usr/lib/gcc/arm-none-eabi/5.4.1/../../../arm-none-eabi/lib/armv6-m/libg.a(lib_a-asctime.o)
 .comment       0x0000002b       0x2c /usr/lib/gcc/arm-none-eabi/5.4.1/../../../arm-none-eabi/lib/armv6-m/libg.a(lib_a-asctime_r.o)
 .comment       0x0000002b       0x2c /usr/lib/gcc/arm-none-eabi/5.4.1/../../../arm-none-eabi/lib/armv6-m/libg.a(lib_a-dtoa.o)
 .comment       0x0000002b       0x2c /usr/lib/gcc/arm-none-eabi/5.4.1/../../../arm-none-eabi/lib/armv6-m/libg.a(lib_a-freer.o)
 .comment       0x0000002b       0x2c /usr/lib/gcc/arm-none-eabi/5.4.1/../../../arm-none-eabi/lib/armv6-m/libg.a(lib_a-getenv_r.o)
 .comment       0x0000002b       0x2c /usr/lib/gcc/arm-none-eabi/5.4.1/../../../arm-none-eabi/lib/armv6-m/libg.a(lib_a-gettzinfo.o)
 .comment       0x0000002b       0x2c /usr/lib/gcc/arm-none-eabi/5.4.1/../../../arm-none-eabi/lib/armv6-m/libg.a(lib_a-gmtime_r.o)
 .comment       0x0000002b       0x2c /usr/lib/gcc/arm-none-eabi/5.4.1/../../../arm-none-eabi/lib/armv6-m/libg.a(lib_a-locale.o)
 .comment       0x0000002b       0x2c /usr/lib/gcc/arm-none-eabi/5.4.1/../../../arm-none-eabi/lib/armv6-m/libg.a(lib_a-memchr-stub.o)
 .comment       0x0000002b       0x2c /usr/lib/gcc/arm-none-eabi/5.4.1/../../../arm-none-eabi/lib/armv6-m/libg.a(lib_a-mprec.o)
 .comment       0x0000002b       0x2c /usr/lib/gcc/arm-none-eabi/5.4.1/../../../arm-none-eabi/lib/armv6-m/libg.a(lib_a-reent.o)
 .comment       0x0000002b       0x2c /usr/lib/gcc/arm-none-eabi/5.4.1/../../../arm-none-eabi/lib/armv6-m/libg.a(lib_a-siprintf.o)
 .comment       0x0000002b       0x2c /usr/lib/gcc/arm-none-eabi/5.4.1/../../../arm-none-eabi/lib/armv6-m/libg.a(lib_a-siscanf.o)
 .comment       0x0000002b       0x2c /usr/lib/gcc/arm-none-eabi/5.4.1/../../../arm-none-eabi/lib/armv6-m/libg.a(lib_a-stdio.o)
 .comment       0x0000002b       0x2c /usr/lib/gcc/arm-none-eabi/5.4.1/../../../arm-none-eabi/lib/armv6-m/libg.a(lib_a-strcpy.o)
 .comment       0x0000002b       0x2c /usr/lib/gcc/arm-none-eabi/5.4.1/../../../arm-none-eabi/lib/armv6-m/libg.a(lib_a-strlen-stub.o)
 .comment       0x0000002b       0x2c /usr/lib/gcc/arm-none-eabi/5.4.1/../../../arm-none-eabi/lib/armv6-m/libg.a(lib_a-strncmp.o)
 .comment       0x0000002b       0x2c /usr/lib/gcc/arm-none-eabi/5.4.1/../../../arm-none-eabi/lib/armv6-m/libg.a(lib_a-strtoul.o)
 .comment       0x0000002b       0x2c /usr/lib/gcc/arm-none-eabi/5.4.1/../../../arm-none-eabi/lib/armv6-m/libg.a(lib_a-svfiprintf.o)
 .comment       0x0000002b       0x2c /usr/lib/gcc/arm-none-eabi/5.4.1/../../../arm-none-eabi/lib/armv6-m/libg.a(lib_a-svfiscanf.o)
 .comment       0x0000002b       0x2c /usr/lib/gcc/arm-none-eabi/5.4.1/../../../arm-none-eabi/lib/armv6-m/libg.a(lib_a-ungetc.o)
 .comment       0x0000002b       0x2c /usr/lib/gcc/arm-none-eabi/5.4.1/../../../arm-none-eabi/lib/armv6-m/libg.a(lib_a-writer.o)
 .comment       0x0000002b       0x2c /usr/lib/gcc/arm-none-eabi/5.4.1/../../../arm-none-eabi/lib/armv6-m/libg.a(lib_a-callocr.o)
 .comment       0x0000002b       0x2c /usr/lib/gcc/arm-none-eabi/5.4.1/../../../arm-none-eabi/lib/armv6-m/libg.a(lib_a-closer.o)
 .comment       0x0000002b       0x2c /usr/lib/gcc/arm-none-eabi/5.4.1/../../../arm-none-eabi/lib/armv6-m/libg.a(lib_a-ctype_.o)
 .comment       0x0000002b       0x2c /usr/lib/gcc/arm-none-eabi/5.4.1/../../../arm-none-eabi/lib/armv6-m/libg.a(lib_a-environ.o)
 .comment       0x0000002b       0x2c /usr/lib/gcc/arm-none-eabi/5.4.1/../../../arm-none-eabi/lib/armv6-m/libg.a(lib_a-envlock.o)
 .comment       0x0000002b       0x2c /usr/lib/gcc/arm-none-eabi/5.4.1/../../../arm-none-eabi/lib/armv6-m/libg.a(lib_a-fflush.o)
 .comment       0x0000002b       0x2c /usr/lib/gcc/arm-none-eabi/5.4.1/../../../arm-none-eabi/lib/armv6-m/libg.a(lib_a-findfp.o)
 .comment       0x0000002b       0x2c /usr/lib/gcc/arm-none-eabi/5.4.1/../../../arm-none-eabi/lib/armv6-m/libg.a(lib_a-fwalk.o)
 .comment       0x0000002b       0x2c /usr/lib/gcc/arm-none-eabi/5.4.1/../../../arm-none-eabi/lib/armv6-m/libg.a(lib_a-iswspace.o)
 .comment       0x0000002b       0x2c /usr/lib/gcc/arm-none-eabi/5.4.1/../../../arm-none-eabi/lib/armv6-m/libg.a(lib_a-lseekr.o)
 .comment       0x0000002b       0x2c /usr/lib/gcc/arm-none-eabi/5.4.1/../../../arm-none-eabi/lib/armv6-m/libg.a(lib_a-mbrtowc.o)
 .comment       0x0000002b       0x2c /usr/lib/gcc/arm-none-eabi/5.4.1/../../../arm-none-eabi/lib/armv6-m/libg.a(lib_a-mbtowc_r.o)
 .comment       0x0000002b       0x2c /usr/lib/gcc/arm-none-eabi/5.4.1/../../../arm-none-eabi/lib/armv6-m/libg.a(lib_a-readr.o)
 .comment       0x0000002b       0x2c /usr/lib/gcc/arm-none-eabi/5.4.1/../../../arm-none-eabi/lib/armv6-m/libg.a(lib_a-reallocr.o)
 .comment       0x0000002b       0x2c /usr/lib/gcc/arm-none-eabi/5.4.1/../../../arm-none-eabi/lib/armv6-m/libg.a(lib_a-sccl.o)
 .comment       0x0000002b       0x2c /usr/lib/gcc/arm-none-eabi/5.4.1/../../../arm-none-eabi/lib/armv6-m/libg.a(lib_a-strtol.o)
 .comment       0x0000002b       0x2c /usr/lib/gcc/arm-none-eabi/5.4.1/../../../arm-none-eabi/lib/armv6-m/libg.a(lib_a-strtoll_r.o)
 .comment       0x0000002b       0x2c /usr/lib/gcc/arm-none-eabi/5.4.1/../../../arm-none-eabi/lib/armv6-m/libg.a(lib_a-strtoull_r.o)
 .comment       0x0000002b       0x2c /usr/lib/gcc/arm-none-eabi/5.4.1/../../../arm-none-eabi/lib/armv6-m/libg.a(lib_a-fclose.o)
 .comment       0x0000002b       0x2c /usr/lib/gcc/arm-none-eabi/5.4.1/armv6-m/libgcc.a(_muldi3.o)
 .comment       0x0000002b       0x2c /usr/lib/gcc/arm-none-eabi/5.4.1/armv6-m/libgcc.a(_udivmoddi4.o)
 .comment       0x0000002b       0x2c /usr/lib/gcc/arm-none-eabi/5.4.1/armv6-m/libgcc.a(adddf3.o)
 .comment       0x0000002b       0x2c /usr/lib/gcc/arm-none-eabi/5.4.1/armv6-m/libgcc.a(subdf3.o)
 .comment       0x0000002b       0x2c /usr/lib/gcc/arm-none-eabi/5.4.1/armv6-m/libgcc.a(unorddf2.o)
 .comment       0x0000002b       0x2c /usr/lib/gcc/arm-none-eabi/5.4.1/armv6-m/libgcc.a(fixdfsi.o)
 .comment       0x0000002b       0x2c /usr/lib/gcc/arm-none-eabi/5.4.1/armv6-m/libgcc.a(floatsidf.o)
 .comment       0x0000002b       0x2c /usr/lib/gcc/arm-none-eabi/5.4.1/armv6-m/libgcc.a(floatunsidf.o)
 .comment       0x0000002b       0x2c /usr/lib/gcc/arm-none-eabi/5.4.1/../../../arm-none-eabi/lib/armv6-m/libnosys.a(close.o)
 .comment       0x0000002b       0x2c /usr/lib/gcc/arm-none-eabi/5.4.1/../../../arm-none-eabi/lib/armv6-m/libnosys.a(lseek.o)
 .comment       0x0000002b       0x2c /usr/lib/gcc/arm-none-eabi/5.4.1/../../../arm-none-eabi/lib/armv6-m/libnosys.a(read.o)
 .comment       0x0000002b       0x2c /usr/lib/gcc/arm-none-eabi/5.4.1/../../../arm-none-eabi/lib/armv6-m/libnosys.a(sbrk.o)
 .comment       0x0000002b       0x2c /usr/lib/gcc/arm-none-eabi/5.4.1/../../../arm-none-eabi/lib/armv6-m/libnosys.a(write.o)
 .comment       0x0000002b       0x2c /usr/lib/gcc/arm-none-eabi/5.4.1/../../../arm-none-eabi/lib/armv6-m/libnosys.a(_exit.o)
 .comment       0x0000002b       0x2c /usr/lib/gcc/arm-none-eabi/5.4.1/armv6-m/crtend.o

.debug_line     0x00000000     0xc41b
 .debug_line    0x00000000       0x80 /usr/lib/gcc/arm-none-eabi/5.4.1/../../../arm-none-eabi/lib/armv6-m/crt0.o
 .debug_line    0x00000080      0x1e2 debug.o
 .debug_line    0x00000262      0x2ba memory.o
 .debug_line    0x0000051c      0x27d conversion.o
 .debug_line    0x00000799      0x272 circular_buffer.o
 .debug_line    0x00000a0b      0x187 platform.o
 .debug_line    0x00000b92       0x2f logger_queue.o
 .debug_line    0x00000bc1      0x36b logger_helper.o
 .debug_line    0x00000f2c      0x267 logger.o
 .debug_line    0x00001193      0x282 data_processing.o
 .debug_line    0x00001415      0x328 timestamp.o
 .debug_line    0x0000173d      0x1f2 time_profiler.o
 .debug_line    0x0000192f      0x42e project3.o
 .debug_line    0x00001d5d       0x5d main.o
 .debug_line    0x00001dba      0x1dc system_MKL25Z4.o
 .debug_line    0x00001f96      0x250 mcg.o
 .debug_line    0x000021e6      0x1fa gpio.o
 .debug_line    0x000023e0      0x550 uart0.o
 .debug_line    0x00002930      0x319 dma.o
 .debug_line    0x00002c49      0x23c nordic_driver.o
 .debug_line    0x00002e85      0x250 spi.o
 .debug_line    0x000030d5      0x2b0 timer0.o
 .debug_line    0x00003385       0x5a startup_MKL25Z4.o
 .debug_line    0x000033df       0x6a /usr/lib/gcc/arm-none-eabi/5.4.1/armv6-m/libgcc.a(_udivsi3.o)
 .debug_line    0x00003449       0x5e /usr/lib/gcc/arm-none-eabi/5.4.1/armv6-m/libgcc.a(_dvmd_tls.o)
 .debug_line    0x000034a7       0x76 /usr/lib/gcc/arm-none-eabi/5.4.1/armv6-m/libgcc.a(_arm_cmpdf2.o)
 .debug_line    0x0000351d       0x9c /usr/lib/gcc/arm-none-eabi/5.4.1/armv6-m/libgcc.a(floatunsisf.o)
 .debug_line    0x000035b9      0x26b /usr/lib/gcc/arm-none-eabi/5.4.1/armv6-m/libgcc.a(divdf3.o)
 .debug_line    0x00003824       0xac /usr/lib/gcc/arm-none-eabi/5.4.1/armv6-m/libgcc.a(eqdf2.o)
 .debug_line    0x000038d0       0xce /usr/lib/gcc/arm-none-eabi/5.4.1/armv6-m/libgcc.a(gedf2.o)
 .debug_line    0x0000399e       0xd3 /usr/lib/gcc/arm-none-eabi/5.4.1/armv6-m/libgcc.a(ledf2.o)
 .debug_line    0x00003a71      0x1ad /usr/lib/gcc/arm-none-eabi/5.4.1/armv6-m/libgcc.a(muldf3.o)
 .debug_line    0x00003c1e       0xac /usr/lib/gcc/arm-none-eabi/5.4.1/armv6-m/libgcc.a(extendsfdf2.o)
 .debug_line    0x00003cca       0xe6 /usr/lib/gcc/arm-none-eabi/5.4.1/armv6-m/libgcc.a(truncdfsf2.o)
 .debug_line    0x00003db0       0x72 /usr/lib/gcc/arm-none-eabi/5.4.1/armv6-m/libgcc.a(_clzsi2.o)
 .debug_line    0x00003e22       0xb7 /usr/lib/gcc/arm-none-eabi/5.4.1/../../../arm-none-eabi/lib/armv6-m/libg.a(lib_a-atexit.o)
 .debug_line    0x00003ed9       0xf6 /usr/lib/gcc/arm-none-eabi/5.4.1/../../../arm-none-eabi/lib/armv6-m/libg.a(lib_a-ctime.o)
 .debug_line    0x00003fcf      0x15f /usr/lib/gcc/arm-none-eabi/5.4.1/../../../arm-none-eabi/lib/armv6-m/libg.a(lib_a-exit.o)
 .debug_line    0x0000412e       0x9c /usr/lib/gcc/arm-none-eabi/5.4.1/../../../arm-none-eabi/lib/armv6-m/libg.a(lib_a-fini.o)
 .debug_line    0x000041ca       0xe6 /usr/lib/gcc/arm-none-eabi/5.4.1/../../../arm-none-eabi/lib/armv6-m/libg.a(lib_a-impure.o)
 .debug_line    0x000042b0       0xc0 /usr/lib/gcc/arm-none-eabi/5.4.1/../../../arm-none-eabi/lib/armv6-m/libg.a(lib_a-init.o)
 .debug_line    0x00004370      0x150 /usr/lib/gcc/arm-none-eabi/5.4.1/../../../arm-none-eabi/lib/armv6-m/libg.a(lib_a-lcltime.o)
 .debug_line    0x000044c0      0x1da /usr/lib/gcc/arm-none-eabi/5.4.1/../../../arm-none-eabi/lib/armv6-m/libg.a(lib_a-lcltime_r.o)
 .debug_line    0x0000469a      0x14b /usr/lib/gcc/arm-none-eabi/5.4.1/../../../arm-none-eabi/lib/armv6-m/libg.a(lib_a-malloc.o)
 .debug_line    0x000047e5      0x36f /usr/lib/gcc/arm-none-eabi/5.4.1/../../../arm-none-eabi/lib/armv6-m/libg.a(lib_a-mallocr.o)
 .debug_line    0x00004b54      0x11e /usr/lib/gcc/arm-none-eabi/5.4.1/../../../arm-none-eabi/lib/armv6-m/libg.a(lib_a-memcpy-stub.o)
 .debug_line    0x00004c72      0x10a /usr/lib/gcc/arm-none-eabi/5.4.1/../../../arm-none-eabi/lib/armv6-m/libg.a(lib_a-memmove.o)
 .debug_line    0x00004d7c      0x104 /usr/lib/gcc/arm-none-eabi/5.4.1/../../../arm-none-eabi/lib/armv6-m/libg.a(lib_a-memset.o)
 .debug_line    0x00004e80       0xf6 /usr/lib/gcc/arm-none-eabi/5.4.1/../../../arm-none-eabi/lib/armv6-m/libg.a(lib_a-mlock.o)
 .debug_line    0x00004f76       0x53 /usr/lib/gcc/arm-none-eabi/5.4.1/../../../arm-none-eabi/lib/armv6-m/libg.a(lib_a-month_lengths.o)
 .debug_line    0x00004fc9      0x14c /usr/lib/gcc/arm-none-eabi/5.4.1/../../../arm-none-eabi/lib/armv6-m/libg.a(lib_a-sbrkr.o)
 .debug_line    0x00005115      0x197 /usr/lib/gcc/arm-none-eabi/5.4.1/../../../arm-none-eabi/lib/armv6-m/libg.a(lib_a-sprintf.o)
 .debug_line    0x000052ac      0xa98 /usr/lib/gcc/arm-none-eabi/5.4.1/../../../arm-none-eabi/lib/armv6-m/libg.a(lib_a-svfprintf.o)
 .debug_line    0x00005d44      0x1a6 /usr/lib/gcc/arm-none-eabi/5.4.1/../../../arm-none-eabi/lib/armv6-m/libg.a(lib_a-tzcalc_limits.o)
 .debug_line    0x00005eea       0x5c /usr/lib/gcc/arm-none-eabi/5.4.1/../../../arm-none-eabi/lib/armv6-m/libg.a(lib_a-tzlock.o)
 .debug_line    0x00005f46      0x153 /usr/lib/gcc/arm-none-eabi/5.4.1/../../../arm-none-eabi/lib/armv6-m/libg.a(lib_a-tzset.o)
 .debug_line    0x00006099      0x26a /usr/lib/gcc/arm-none-eabi/5.4.1/../../../arm-none-eabi/lib/armv6-m/libg.a(lib_a-tzset_r.o)
 .debug_line    0x00006303       0x66 /usr/lib/gcc/arm-none-eabi/5.4.1/../../../arm-none-eabi/lib/armv6-m/libg.a(lib_a-tzvars.o)
 .debug_line    0x00006369      0x197 /usr/lib/gcc/arm-none-eabi/5.4.1/../../../arm-none-eabi/lib/armv6-m/libg.a(lib_a-vsnprintf.o)
 .debug_line    0x00006500      0x187 /usr/lib/gcc/arm-none-eabi/5.4.1/../../../arm-none-eabi/lib/armv6-m/libg.a(lib_a-__atexit.o)
 .debug_line    0x00006687      0x1b4 /usr/lib/gcc/arm-none-eabi/5.4.1/../../../arm-none-eabi/lib/armv6-m/libg.a(lib_a-__call_atexit.o)
 .debug_line    0x0000683b      0x142 /usr/lib/gcc/arm-none-eabi/5.4.1/../../../arm-none-eabi/lib/armv6-m/libg.a(lib_a-asctime.o)
 .debug_line    0x0000697d       0xc5 /usr/lib/gcc/arm-none-eabi/5.4.1/../../../arm-none-eabi/lib/armv6-m/libg.a(lib_a-asctime_r.o)
 .debug_line    0x00006a42      0x639 /usr/lib/gcc/arm-none-eabi/5.4.1/../../../arm-none-eabi/lib/armv6-m/libg.a(lib_a-dtoa.o)
 .debug_line    0x0000707b      0x229 /usr/lib/gcc/arm-none-eabi/5.4.1/../../../arm-none-eabi/lib/armv6-m/libg.a(lib_a-freer.o)
 .debug_line    0x000072a4      0x18a /usr/lib/gcc/arm-none-eabi/5.4.1/../../../arm-none-eabi/lib/armv6-m/libg.a(lib_a-getenv_r.o)
 .debug_line    0x0000742e       0xf9 /usr/lib/gcc/arm-none-eabi/5.4.1/../../../arm-none-eabi/lib/armv6-m/libg.a(lib_a-gettzinfo.o)
 .debug_line    0x00007527      0x178 /usr/lib/gcc/arm-none-eabi/5.4.1/../../../arm-none-eabi/lib/armv6-m/libg.a(lib_a-gmtime_r.o)
 .debug_line    0x0000769f      0x18a /usr/lib/gcc/arm-none-eabi/5.4.1/../../../arm-none-eabi/lib/armv6-m/libg.a(lib_a-locale.o)
 .debug_line    0x00007829      0x11f /usr/lib/gcc/arm-none-eabi/5.4.1/../../../arm-none-eabi/lib/armv6-m/libg.a(lib_a-memchr-stub.o)
 .debug_line    0x00007948      0x5be /usr/lib/gcc/arm-none-eabi/5.4.1/../../../arm-none-eabi/lib/armv6-m/libg.a(lib_a-mprec.o)
 .debug_line    0x00007f06      0x177 /usr/lib/gcc/arm-none-eabi/5.4.1/../../../arm-none-eabi/lib/armv6-m/libg.a(lib_a-reent.o)
 .debug_line    0x0000807d      0x198 /usr/lib/gcc/arm-none-eabi/5.4.1/../../../arm-none-eabi/lib/armv6-m/libg.a(lib_a-siprintf.o)
 .debug_line    0x00008215      0x1a6 /usr/lib/gcc/arm-none-eabi/5.4.1/../../../arm-none-eabi/lib/armv6-m/libg.a(lib_a-siscanf.o)
 .debug_line    0x000083bb      0x180 /usr/lib/gcc/arm-none-eabi/5.4.1/../../../arm-none-eabi/lib/armv6-m/libg.a(lib_a-stdio.o)
 .debug_line    0x0000853b       0xaa /usr/lib/gcc/arm-none-eabi/5.4.1/../../../arm-none-eabi/lib/armv6-m/libg.a(lib_a-strcmp.o)
 .debug_line    0x000085e5       0xb1 /usr/lib/gcc/arm-none-eabi/5.4.1/../../../arm-none-eabi/lib/armv6-m/libg.a(lib_a-strcpy.o)
 .debug_line    0x00008696      0x10a /usr/lib/gcc/arm-none-eabi/5.4.1/../../../arm-none-eabi/lib/armv6-m/libg.a(lib_a-strlen-stub.o)
 .debug_line    0x000087a0      0x118 /usr/lib/gcc/arm-none-eabi/5.4.1/../../../arm-none-eabi/lib/armv6-m/libg.a(lib_a-strncmp.o)
 .debug_line    0x000088b8      0x1d9 /usr/lib/gcc/arm-none-eabi/5.4.1/../../../arm-none-eabi/lib/armv6-m/libg.a(lib_a-strtoul.o)
 .debug_line    0x00008a91      0x7cb /usr/lib/gcc/arm-none-eabi/5.4.1/../../../arm-none-eabi/lib/armv6-m/libg.a(lib_a-svfiprintf.o)
 .debug_line    0x0000925c      0x58d /usr/lib/gcc/arm-none-eabi/5.4.1/../../../arm-none-eabi/lib/armv6-m/libg.a(lib_a-svfiscanf.o)
 .debug_line    0x000097e9      0x1e8 /usr/lib/gcc/arm-none-eabi/5.4.1/../../../arm-none-eabi/lib/armv6-m/libg.a(lib_a-ungetc.o)
 .debug_line    0x000099d1      0x149 /usr/lib/gcc/arm-none-eabi/5.4.1/../../../arm-none-eabi/lib/armv6-m/libg.a(lib_a-writer.o)
 .debug_line    0x00009b1a      0x129 /usr/lib/gcc/arm-none-eabi/5.4.1/../../../arm-none-eabi/lib/armv6-m/libg.a(lib_a-callocr.o)
 .debug_line    0x00009c43      0x14d /usr/lib/gcc/arm-none-eabi/5.4.1/../../../arm-none-eabi/lib/armv6-m/libg.a(lib_a-closer.o)
 .debug_line    0x00009d90       0x67 /usr/lib/gcc/arm-none-eabi/5.4.1/../../../arm-none-eabi/lib/armv6-m/libg.a(lib_a-ctype_.o)
 .debug_line    0x00009df7       0x4f /usr/lib/gcc/arm-none-eabi/5.4.1/../../../arm-none-eabi/lib/armv6-m/libg.a(lib_a-environ.o)
 .debug_line    0x00009e46      0x144 /usr/lib/gcc/arm-none-eabi/5.4.1/../../../arm-none-eabi/lib/armv6-m/libg.a(lib_a-envlock.o)
 .debug_line    0x00009f8a      0x221 /usr/lib/gcc/arm-none-eabi/5.4.1/../../../arm-none-eabi/lib/armv6-m/libg.a(lib_a-fflush.o)
 .debug_line    0x0000a1ab      0x266 /usr/lib/gcc/arm-none-eabi/5.4.1/../../../arm-none-eabi/lib/armv6-m/libg.a(lib_a-findfp.o)
 .debug_line    0x0000a411      0x18d /usr/lib/gcc/arm-none-eabi/5.4.1/../../../arm-none-eabi/lib/armv6-m/libg.a(lib_a-fwalk.o)
 .debug_line    0x0000a59e       0xfa /usr/lib/gcc/arm-none-eabi/5.4.1/../../../arm-none-eabi/lib/armv6-m/libg.a(lib_a-iswspace.o)
 .debug_line    0x0000a698      0x149 /usr/lib/gcc/arm-none-eabi/5.4.1/../../../arm-none-eabi/lib/armv6-m/libg.a(lib_a-lseekr.o)
 .debug_line    0x0000a7e1      0x16c /usr/lib/gcc/arm-none-eabi/5.4.1/../../../arm-none-eabi/lib/armv6-m/libg.a(lib_a-mbrtowc.o)
 .debug_line    0x0000a94d      0x174 /usr/lib/gcc/arm-none-eabi/5.4.1/../../../arm-none-eabi/lib/armv6-m/libg.a(lib_a-mbtowc_r.o)
 .debug_line    0x0000aac1      0x148 /usr/lib/gcc/arm-none-eabi/5.4.1/../../../arm-none-eabi/lib/armv6-m/libg.a(lib_a-readr.o)
 .debug_line    0x0000ac09      0x281 /usr/lib/gcc/arm-none-eabi/5.4.1/../../../arm-none-eabi/lib/armv6-m/libg.a(lib_a-reallocr.o)
 .debug_line    0x0000ae8a       0xee /usr/lib/gcc/arm-none-eabi/5.4.1/../../../arm-none-eabi/lib/armv6-m/libg.a(lib_a-sccl.o)
 .debug_line    0x0000af78      0x1e4 /usr/lib/gcc/arm-none-eabi/5.4.1/../../../arm-none-eabi/lib/armv6-m/libg.a(lib_a-strtol.o)
 .debug_line    0x0000b15c      0x1fc /usr/lib/gcc/arm-none-eabi/5.4.1/../../../arm-none-eabi/lib/armv6-m/libg.a(lib_a-strtoll_r.o)
 .debug_line    0x0000b358      0x1de /usr/lib/gcc/arm-none-eabi/5.4.1/../../../arm-none-eabi/lib/armv6-m/libg.a(lib_a-strtoull_r.o)
 .debug_line    0x0000b536      0x18a /usr/lib/gcc/arm-none-eabi/5.4.1/../../../arm-none-eabi/lib/armv6-m/libg.a(lib_a-fclose.o)
 .debug_line    0x0000b6c0       0x71 /usr/lib/gcc/arm-none-eabi/5.4.1/armv6-m/libgcc.a(_divsi3.o)
 .debug_line    0x0000b731       0x69 /usr/lib/gcc/arm-none-eabi/5.4.1/armv6-m/libgcc.a(_aeabi_uldivmod.o)
 .debug_line    0x0000b79a       0x81 /usr/lib/gcc/arm-none-eabi/5.4.1/armv6-m/libgcc.a(_muldi3.o)
 .debug_line    0x0000b81b       0x9c /usr/lib/gcc/arm-none-eabi/5.4.1/armv6-m/libgcc.a(_udivmoddi4.o)
 .debug_line    0x0000b8b7      0x347 /usr/lib/gcc/arm-none-eabi/5.4.1/armv6-m/libgcc.a(adddf3.o)
 .debug_line    0x0000bbfe      0x34d /usr/lib/gcc/arm-none-eabi/5.4.1/armv6-m/libgcc.a(subdf3.o)
 .debug_line    0x0000bf4b       0x9a /usr/lib/gcc/arm-none-eabi/5.4.1/armv6-m/libgcc.a(unorddf2.o)
 .debug_line    0x0000bfe5       0x94 /usr/lib/gcc/arm-none-eabi/5.4.1/armv6-m/libgcc.a(fixdfsi.o)
 .debug_line    0x0000c079       0x89 /usr/lib/gcc/arm-none-eabi/5.4.1/armv6-m/libgcc.a(floatsidf.o)
 .debug_line    0x0000c102       0x8a /usr/lib/gcc/arm-none-eabi/5.4.1/armv6-m/libgcc.a(floatunsidf.o)
 .debug_line    0x0000c18c       0x68 /usr/lib/gcc/arm-none-eabi/5.4.1/armv6-m/libgcc.a(_clzdi2.o)
 .debug_line    0x0000c1f4       0x5e /usr/lib/gcc/arm-none-eabi/5.4.1/../../../arm-none-eabi/lib/armv6-m/libnosys.a(close.o)
 .debug_line    0x0000c252       0x5e /usr/lib/gcc/arm-none-eabi/5.4.1/../../../arm-none-eabi/lib/armv6-m/libnosys.a(lseek.o)
 .debug_line    0x0000c2b0       0x5d /usr/lib/gcc/arm-none-eabi/5.4.1/../../../arm-none-eabi/lib/armv6-m/libnosys.a(read.o)
 .debug_line    0x0000c30d       0x58 /usr/lib/gcc/arm-none-eabi/5.4.1/../../../arm-none-eabi/lib/armv6-m/libnosys.a(sbrk.o)
 .debug_line    0x0000c365       0x5e /usr/lib/gcc/arm-none-eabi/5.4.1/../../../arm-none-eabi/lib/armv6-m/libnosys.a(write.o)
 .debug_line    0x0000c3c3       0x58 /usr/lib/gcc/arm-none-eabi/5.4.1/../../../arm-none-eabi/lib/armv6-m/libnosys.a(_exit.o)

.debug_info     0x00000000    0x2a3d6
 .debug_info    0x00000000       0x9d /usr/lib/gcc/arm-none-eabi/5.4.1/../../../arm-none-eabi/lib/armv6-m/crt0.o
 .debug_info    0x0000009d       0xf0 debug.o
 .debug_info    0x0000018d      0x5e3 memory.o
 .debug_info    0x00000770      0x2f0 conversion.o
 .debug_info    0x00000a60      0x38f circular_buffer.o
 .debug_info    0x00000def      0x1c7 platform.o
 .debug_info    0x00000fb6       0x21 logger_queue.o
 .debug_info    0x00000fd7      0x8f4 logger_helper.o
 .debug_info    0x000018cb      0x39e logger.o
 .debug_info    0x00001c69      0x433 data_processing.o
 .debug_info    0x0000209c      0x8d9 timestamp.o
 .debug_info    0x00002975      0x1e9 time_profiler.o
 .debug_info    0x00002b5e      0x641 project3.o
 .debug_info    0x0000319f       0x46 main.o
 .debug_info    0x000031e5      0x3ed system_MKL25Z4.o
 .debug_info    0x000035d2      0x199 mcg.o
 .debug_info    0x0000376b      0x737 gpio.o
 .debug_info    0x00003ea2      0xed4 uart0.o
 .debug_info    0x00004d76      0xb9c dma.o
 .debug_info    0x00005912      0x41b nordic_driver.o
 .debug_info    0x00005d2d      0x698 spi.o
 .debug_info    0x000063c5      0x6bd timer0.o
 .debug_info    0x00006a82       0x60 startup_MKL25Z4.o
 .debug_info    0x00006ae2       0xb9 /usr/lib/gcc/arm-none-eabi/5.4.1/armv6-m/libgcc.a(_udivsi3.o)
 .debug_info    0x00006b9b       0xb9 /usr/lib/gcc/arm-none-eabi/5.4.1/armv6-m/libgcc.a(_dvmd_tls.o)
 .debug_info    0x00006c54       0xb9 /usr/lib/gcc/arm-none-eabi/5.4.1/armv6-m/libgcc.a(_arm_cmpdf2.o)
 .debug_info    0x00006d0d      0x1bf /usr/lib/gcc/arm-none-eabi/5.4.1/armv6-m/libgcc.a(floatunsisf.o)
 .debug_info    0x00006ecc      0x5c3 /usr/lib/gcc/arm-none-eabi/5.4.1/armv6-m/libgcc.a(divdf3.o)
 .debug_info    0x0000748f      0x1e7 /usr/lib/gcc/arm-none-eabi/5.4.1/armv6-m/libgcc.a(eqdf2.o)
 .debug_info    0x00007676      0x20d /usr/lib/gcc/arm-none-eabi/5.4.1/armv6-m/libgcc.a(gedf2.o)
 .debug_info    0x00007883      0x209 /usr/lib/gcc/arm-none-eabi/5.4.1/armv6-m/libgcc.a(ledf2.o)
 .debug_info    0x00007a8c      0x5f9 /usr/lib/gcc/arm-none-eabi/5.4.1/armv6-m/libgcc.a(muldf3.o)
 .debug_info    0x00008085      0x250 /usr/lib/gcc/arm-none-eabi/5.4.1/armv6-m/libgcc.a(extendsfdf2.o)
 .debug_info    0x000082d5      0x240 /usr/lib/gcc/arm-none-eabi/5.4.1/armv6-m/libgcc.a(truncdfsf2.o)
 .debug_info    0x00008515       0xb9 /usr/lib/gcc/arm-none-eabi/5.4.1/armv6-m/libgcc.a(_clzsi2.o)
 .debug_info    0x000085ce       0xfe /usr/lib/gcc/arm-none-eabi/5.4.1/../../../arm-none-eabi/lib/armv6-m/libg.a(lib_a-atexit.o)
 .debug_info    0x000086cc       0xfa /usr/lib/gcc/arm-none-eabi/5.4.1/../../../arm-none-eabi/lib/armv6-m/libg.a(lib_a-ctime.o)
 .debug_info    0x000087c6      0x8de /usr/lib/gcc/arm-none-eabi/5.4.1/../../../arm-none-eabi/lib/armv6-m/libg.a(lib_a-exit.o)
 .debug_info    0x000090a4       0xfa /usr/lib/gcc/arm-none-eabi/5.4.1/../../../arm-none-eabi/lib/armv6-m/libg.a(lib_a-fini.o)
 .debug_info    0x0000919e      0x89b /usr/lib/gcc/arm-none-eabi/5.4.1/../../../arm-none-eabi/lib/armv6-m/libg.a(lib_a-impure.o)
 .debug_info    0x00009a39      0x110 /usr/lib/gcc/arm-none-eabi/5.4.1/../../../arm-none-eabi/lib/armv6-m/libg.a(lib_a-init.o)
 .debug_info    0x00009b49      0x95d /usr/lib/gcc/arm-none-eabi/5.4.1/../../../arm-none-eabi/lib/armv6-m/libg.a(lib_a-lcltime.o)
 .debug_info    0x0000a4a6      0x348 /usr/lib/gcc/arm-none-eabi/5.4.1/../../../arm-none-eabi/lib/armv6-m/libg.a(lib_a-lcltime_r.o)
 .debug_info    0x0000a7ee      0x906 /usr/lib/gcc/arm-none-eabi/5.4.1/../../../arm-none-eabi/lib/armv6-m/libg.a(lib_a-malloc.o)
 .debug_info    0x0000b0f4      0xd44 /usr/lib/gcc/arm-none-eabi/5.4.1/../../../arm-none-eabi/lib/armv6-m/libg.a(lib_a-mallocr.o)
 .debug_info    0x0000be38      0x142 /usr/lib/gcc/arm-none-eabi/5.4.1/../../../arm-none-eabi/lib/armv6-m/libg.a(lib_a-memcpy-stub.o)
 .debug_info    0x0000bf7a      0x138 /usr/lib/gcc/arm-none-eabi/5.4.1/../../../arm-none-eabi/lib/armv6-m/libg.a(lib_a-memmove.o)
 .debug_info    0x0000c0b2      0x11e /usr/lib/gcc/arm-none-eabi/5.4.1/../../../arm-none-eabi/lib/armv6-m/libg.a(lib_a-memset.o)
 .debug_info    0x0000c1d0      0x8a8 /usr/lib/gcc/arm-none-eabi/5.4.1/../../../arm-none-eabi/lib/armv6-m/libg.a(lib_a-mlock.o)
 .debug_info    0x0000ca78       0xaa /usr/lib/gcc/arm-none-eabi/5.4.1/../../../arm-none-eabi/lib/armv6-m/libg.a(lib_a-month_lengths.o)
 .debug_info    0x0000cb22      0x8f5 /usr/lib/gcc/arm-none-eabi/5.4.1/../../../arm-none-eabi/lib/armv6-m/libg.a(lib_a-sbrkr.o)
 .debug_info    0x0000d417      0x9df /usr/lib/gcc/arm-none-eabi/5.4.1/../../../arm-none-eabi/lib/armv6-m/libg.a(lib_a-sprintf.o)
 .debug_info    0x0000ddf6     0x14fc /usr/lib/gcc/arm-none-eabi/5.4.1/../../../arm-none-eabi/lib/armv6-m/libg.a(lib_a-svfprintf.o)
 .debug_info    0x0000f2f2      0x262 /usr/lib/gcc/arm-none-eabi/5.4.1/../../../arm-none-eabi/lib/armv6-m/libg.a(lib_a-tzcalc_limits.o)
 .debug_info    0x0000f554       0xa4 /usr/lib/gcc/arm-none-eabi/5.4.1/../../../arm-none-eabi/lib/armv6-m/libg.a(lib_a-tzlock.o)
 .debug_info    0x0000f5f8      0x8e6 /usr/lib/gcc/arm-none-eabi/5.4.1/../../../arm-none-eabi/lib/armv6-m/libg.a(lib_a-tzset.o)
 .debug_info    0x0000fede      0xd51 /usr/lib/gcc/arm-none-eabi/5.4.1/../../../arm-none-eabi/lib/armv6-m/libg.a(lib_a-tzset_r.o)
 .debug_info    0x00010c2f       0xc2 /usr/lib/gcc/arm-none-eabi/5.4.1/../../../arm-none-eabi/lib/armv6-m/libg.a(lib_a-tzvars.o)
 .debug_info    0x00010cf1      0xa0c /usr/lib/gcc/arm-none-eabi/5.4.1/../../../arm-none-eabi/lib/armv6-m/libg.a(lib_a-vsnprintf.o)
 .debug_info    0x000116fd      0x92e /usr/lib/gcc/arm-none-eabi/5.4.1/../../../arm-none-eabi/lib/armv6-m/libg.a(lib_a-__atexit.o)
 .debug_info    0x0001202b      0x9a5 /usr/lib/gcc/arm-none-eabi/5.4.1/../../../arm-none-eabi/lib/armv6-m/libg.a(lib_a-__call_atexit.o)
 .debug_info    0x000129d0      0x94c /usr/lib/gcc/arm-none-eabi/5.4.1/../../../arm-none-eabi/lib/armv6-m/libg.a(lib_a-asctime.o)
 .debug_info    0x0001331c      0x1ce /usr/lib/gcc/arm-none-eabi/5.4.1/../../../arm-none-eabi/lib/armv6-m/libg.a(lib_a-asctime_r.o)
 .debug_info    0x000134ea     0x126c /usr/lib/gcc/arm-none-eabi/5.4.1/../../../arm-none-eabi/lib/armv6-m/libg.a(lib_a-dtoa.o)
 .debug_info    0x00014756      0xbeb /usr/lib/gcc/arm-none-eabi/5.4.1/../../../arm-none-eabi/lib/armv6-m/libg.a(lib_a-freer.o)
 .debug_info    0x00015341      0x9d9 /usr/lib/gcc/arm-none-eabi/5.4.1/../../../arm-none-eabi/lib/armv6-m/libg.a(lib_a-getenv_r.o)
 .debug_info    0x00015d1a      0x167 /usr/lib/gcc/arm-none-eabi/5.4.1/../../../arm-none-eabi/lib/armv6-m/libg.a(lib_a-gettzinfo.o)
 .debug_info    0x00015e81      0x1fc /usr/lib/gcc/arm-none-eabi/5.4.1/../../../arm-none-eabi/lib/armv6-m/libg.a(lib_a-gmtime_r.o)
 .debug_info    0x0001607d      0xc19 /usr/lib/gcc/arm-none-eabi/5.4.1/../../../arm-none-eabi/lib/armv6-m/libg.a(lib_a-locale.o)
 .debug_info    0x00016c96      0x132 /usr/lib/gcc/arm-none-eabi/5.4.1/../../../arm-none-eabi/lib/armv6-m/libg.a(lib_a-memchr-stub.o)
 .debug_info    0x00016dc8     0x16c5 /usr/lib/gcc/arm-none-eabi/5.4.1/../../../arm-none-eabi/lib/armv6-m/libg.a(lib_a-mprec.o)
 .debug_info    0x0001848d      0x9f9 /usr/lib/gcc/arm-none-eabi/5.4.1/../../../arm-none-eabi/lib/armv6-m/libg.a(lib_a-reent.o)
 .debug_info    0x00018e86      0x9cb /usr/lib/gcc/arm-none-eabi/5.4.1/../../../arm-none-eabi/lib/armv6-m/libg.a(lib_a-siprintf.o)
 .debug_info    0x00019851      0x9fc /usr/lib/gcc/arm-none-eabi/5.4.1/../../../arm-none-eabi/lib/armv6-m/libg.a(lib_a-siscanf.o)
 .debug_info    0x0001a24d      0xb28 /usr/lib/gcc/arm-none-eabi/5.4.1/../../../arm-none-eabi/lib/armv6-m/libg.a(lib_a-stdio.o)
 .debug_info    0x0001ad75       0xc2 /usr/lib/gcc/arm-none-eabi/5.4.1/../../../arm-none-eabi/lib/armv6-m/libg.a(lib_a-strcmp.o)
 .debug_info    0x0001ae37       0xc4 /usr/lib/gcc/arm-none-eabi/5.4.1/../../../arm-none-eabi/lib/armv6-m/libg.a(lib_a-strcpy.o)
 .debug_info    0x0001aefb       0xe4 /usr/lib/gcc/arm-none-eabi/5.4.1/../../../arm-none-eabi/lib/armv6-m/libg.a(lib_a-strlen-stub.o)
 .debug_info    0x0001afdf       0xfc /usr/lib/gcc/arm-none-eabi/5.4.1/../../../arm-none-eabi/lib/armv6-m/libg.a(lib_a-strncmp.o)
 .debug_info    0x0001b0db      0x9b9 /usr/lib/gcc/arm-none-eabi/5.4.1/../../../arm-none-eabi/lib/armv6-m/libg.a(lib_a-strtoul.o)
 .debug_info    0x0001ba94      0xfbf /usr/lib/gcc/arm-none-eabi/5.4.1/../../../arm-none-eabi/lib/armv6-m/libg.a(lib_a-svfiprintf.o)
 .debug_info    0x0001ca53     0x1222 /usr/lib/gcc/arm-none-eabi/5.4.1/../../../arm-none-eabi/lib/armv6-m/libg.a(lib_a-svfiscanf.o)
 .debug_info    0x0001dc75      0xaa9 /usr/lib/gcc/arm-none-eabi/5.4.1/../../../arm-none-eabi/lib/armv6-m/libg.a(lib_a-ungetc.o)
 .debug_info    0x0001e71e      0x934 /usr/lib/gcc/arm-none-eabi/5.4.1/../../../arm-none-eabi/lib/armv6-m/libg.a(lib_a-writer.o)
 .debug_info    0x0001f052      0x9c8 /usr/lib/gcc/arm-none-eabi/5.4.1/../../../arm-none-eabi/lib/armv6-m/libg.a(lib_a-callocr.o)
 .debug_info    0x0001fa1a      0x8eb /usr/lib/gcc/arm-none-eabi/5.4.1/../../../arm-none-eabi/lib/armv6-m/libg.a(lib_a-closer.o)
 .debug_info    0x00020305       0xbc /usr/lib/gcc/arm-none-eabi/5.4.1/../../../arm-none-eabi/lib/armv6-m/libg.a(lib_a-ctype_.o)
 .debug_info    0x000203c1       0x6a /usr/lib/gcc/arm-none-eabi/5.4.1/../../../arm-none-eabi/lib/armv6-m/libg.a(lib_a-environ.o)
 .debug_info    0x0002042b      0x8a8 /usr/lib/gcc/arm-none-eabi/5.4.1/../../../arm-none-eabi/lib/armv6-m/libg.a(lib_a-envlock.o)
 .debug_info    0x00020cd3      0xa93 /usr/lib/gcc/arm-none-eabi/5.4.1/../../../arm-none-eabi/lib/armv6-m/libg.a(lib_a-fflush.o)
 .debug_info    0x00021766      0xd49 /usr/lib/gcc/arm-none-eabi/5.4.1/../../../arm-none-eabi/lib/armv6-m/libg.a(lib_a-findfp.o)
 .debug_info    0x000224af      0x9a5 /usr/lib/gcc/arm-none-eabi/5.4.1/../../../arm-none-eabi/lib/armv6-m/libg.a(lib_a-fwalk.o)
 .debug_info    0x00022e54       0xca /usr/lib/gcc/arm-none-eabi/5.4.1/../../../arm-none-eabi/lib/armv6-m/libg.a(lib_a-iswspace.o)
 .debug_info    0x00022f1e      0x917 /usr/lib/gcc/arm-none-eabi/5.4.1/../../../arm-none-eabi/lib/armv6-m/libg.a(lib_a-lseekr.o)
 .debug_info    0x00023835      0xaa3 /usr/lib/gcc/arm-none-eabi/5.4.1/../../../arm-none-eabi/lib/armv6-m/libg.a(lib_a-mbrtowc.o)
 .debug_info    0x000242d8      0xa00 /usr/lib/gcc/arm-none-eabi/5.4.1/../../../arm-none-eabi/lib/armv6-m/libg.a(lib_a-mbtowc_r.o)
 .debug_info    0x00024cd8      0x92d /usr/lib/gcc/arm-none-eabi/5.4.1/../../../arm-none-eabi/lib/armv6-m/libg.a(lib_a-readr.o)
 .debug_info    0x00025605      0xc99 /usr/lib/gcc/arm-none-eabi/5.4.1/../../../arm-none-eabi/lib/armv6-m/libg.a(lib_a-reallocr.o)
 .debug_info    0x0002629e      0x102 /usr/lib/gcc/arm-none-eabi/5.4.1/../../../arm-none-eabi/lib/armv6-m/libg.a(lib_a-sccl.o)
 .debug_info    0x000263a0      0x9b9 /usr/lib/gcc/arm-none-eabi/5.4.1/../../../arm-none-eabi/lib/armv6-m/libg.a(lib_a-strtol.o)
 .debug_info    0x00026d59      0x94a /usr/lib/gcc/arm-none-eabi/5.4.1/../../../arm-none-eabi/lib/armv6-m/libg.a(lib_a-strtoll_r.o)
 .debug_info    0x000276a3      0x94a /usr/lib/gcc/arm-none-eabi/5.4.1/../../../arm-none-eabi/lib/armv6-m/libg.a(lib_a-strtoull_r.o)
 .debug_info    0x00027fed      0xa18 /usr/lib/gcc/arm-none-eabi/5.4.1/../../../arm-none-eabi/lib/armv6-m/libg.a(lib_a-fclose.o)
 .debug_info    0x00028a05       0xb9 /usr/lib/gcc/arm-none-eabi/5.4.1/armv6-m/libgcc.a(_divsi3.o)
 .debug_info    0x00028abe       0xb9 /usr/lib/gcc/arm-none-eabi/5.4.1/armv6-m/libgcc.a(_aeabi_uldivmod.o)
 .debug_info    0x00028b77      0x1f0 /usr/lib/gcc/arm-none-eabi/5.4.1/armv6-m/libgcc.a(_muldi3.o)
 .debug_info    0x00028d67      0x14f /usr/lib/gcc/arm-none-eabi/5.4.1/armv6-m/libgcc.a(_udivmoddi4.o)
 .debug_info    0x00028eb6      0x489 /usr/lib/gcc/arm-none-eabi/5.4.1/armv6-m/libgcc.a(adddf3.o)
 .debug_info    0x0002933f      0x481 /usr/lib/gcc/arm-none-eabi/5.4.1/armv6-m/libgcc.a(subdf3.o)
 .debug_info    0x000297c0      0x1dc /usr/lib/gcc/arm-none-eabi/5.4.1/armv6-m/libgcc.a(unorddf2.o)
 .debug_info    0x0002999c      0x1a4 /usr/lib/gcc/arm-none-eabi/5.4.1/armv6-m/libgcc.a(fixdfsi.o)
 .debug_info    0x00029b40      0x1c0 /usr/lib/gcc/arm-none-eabi/5.4.1/armv6-m/libgcc.a(floatsidf.o)
 .debug_info    0x00029d00      0x1b4 /usr/lib/gcc/arm-none-eabi/5.4.1/armv6-m/libgcc.a(floatunsidf.o)
 .debug_info    0x00029eb4       0xb9 /usr/lib/gcc/arm-none-eabi/5.4.1/armv6-m/libgcc.a(_clzdi2.o)
 .debug_info    0x00029f6d       0xb5 /usr/lib/gcc/arm-none-eabi/5.4.1/../../../arm-none-eabi/lib/armv6-m/libnosys.a(close.o)
 .debug_info    0x0002a022       0xd1 /usr/lib/gcc/arm-none-eabi/5.4.1/../../../arm-none-eabi/lib/armv6-m/libnosys.a(lseek.o)
 .debug_info    0x0002a0f3       0xd7 /usr/lib/gcc/arm-none-eabi/5.4.1/../../../arm-none-eabi/lib/armv6-m/libnosys.a(read.o)
 .debug_info    0x0002a1ca       0x9b /usr/lib/gcc/arm-none-eabi/5.4.1/../../../arm-none-eabi/lib/armv6-m/libnosys.a(sbrk.o)
 .debug_info    0x0002a265       0xd7 /usr/lib/gcc/arm-none-eabi/5.4.1/../../../arm-none-eabi/lib/armv6-m/libnosys.a(write.o)
 .debug_info    0x0002a33c       0x9a /usr/lib/gcc/arm-none-eabi/5.4.1/../../../arm-none-eabi/lib/armv6-m/libnosys.a(_exit.o)

.debug_abbrev   0x00000000     0xa106
 .debug_abbrev  0x00000000       0x14 /usr/lib/gcc/arm-none-eabi/5.4.1/../../../arm-none-eabi/lib/armv6-m/crt0.o
 .debug_abbrev  0x00000014       0x7b debug.o
 .debug_abbrev  0x0000008f      0x14d memory.o
 .debug_abbrev  0x000001dc       0xd1 conversion.o
 .debug_abbrev  0x000002ad       0xfb circular_buffer.o
 .debug_abbrev  0x000003a8       0xe2 platform.o
 .debug_abbrev  0x0000048a       0x13 logger_queue.o
 .debug_abbrev  0x0000049d      0x1bc logger_helper.o
 .debug_abbrev  0x00000659      0x150 logger.o
 .debug_abbrev  0x000007a9      0x14a data_processing.o
 .debug_abbrev  0x000008f3      0x246 timestamp.o
 .debug_abbrev  0x00000b39      0x14b time_profiler.o
 .debug_abbrev  0x00000c84      0x208 project3.o
 .debug_abbrev  0x00000e8c       0x3a main.o
 .debug_abbrev  0x00000ec6      0x109 system_MKL25Z4.o
 .debug_abbrev  0x00000fcf       0xa8 mcg.o
 .debug_abbrev  0x00001077      0x183 gpio.o
 .debug_abbrev  0x000011fa      0x2ee uart0.o
 .debug_abbrev  0x000014e8      0x241 dma.o
 .debug_abbrev  0x00001729      0x162 nordic_driver.o
 .debug_abbrev  0x0000188b      0x1f9 spi.o
 .debug_abbrev  0x00001a84      0x1aa timer0.o
 .debug_abbrev  0x00001c2e       0x14 startup_MKL25Z4.o
 .debug_abbrev  0x00001c42       0x14 /usr/lib/gcc/arm-none-eabi/5.4.1/armv6-m/libgcc.a(_udivsi3.o)
 .debug_abbrev  0x00001c56       0x14 /usr/lib/gcc/arm-none-eabi/5.4.1/armv6-m/libgcc.a(_dvmd_tls.o)
 .debug_abbrev  0x00001c6a       0x14 /usr/lib/gcc/arm-none-eabi/5.4.1/armv6-m/libgcc.a(_arm_cmpdf2.o)
 .debug_abbrev  0x00001c7e      0x140 /usr/lib/gcc/arm-none-eabi/5.4.1/armv6-m/libgcc.a(floatunsisf.o)
 .debug_abbrev  0x00001dbe      0x12d /usr/lib/gcc/arm-none-eabi/5.4.1/armv6-m/libgcc.a(divdf3.o)
 .debug_abbrev  0x00001eeb      0x11b /usr/lib/gcc/arm-none-eabi/5.4.1/armv6-m/libgcc.a(eqdf2.o)
 .debug_abbrev  0x00002006      0x128 /usr/lib/gcc/arm-none-eabi/5.4.1/armv6-m/libgcc.a(gedf2.o)
 .debug_abbrev  0x0000212e      0x128 /usr/lib/gcc/arm-none-eabi/5.4.1/armv6-m/libgcc.a(ledf2.o)
 .debug_abbrev  0x00002256      0x13f /usr/lib/gcc/arm-none-eabi/5.4.1/armv6-m/libgcc.a(muldf3.o)
 .debug_abbrev  0x00002395      0x124 /usr/lib/gcc/arm-none-eabi/5.4.1/armv6-m/libgcc.a(extendsfdf2.o)
 .debug_abbrev  0x000024b9      0x11b /usr/lib/gcc/arm-none-eabi/5.4.1/armv6-m/libgcc.a(truncdfsf2.o)
 .debug_abbrev  0x000025d4       0x14 /usr/lib/gcc/arm-none-eabi/5.4.1/armv6-m/libgcc.a(_clzsi2.o)
 .debug_abbrev  0x000025e8       0xa7 /usr/lib/gcc/arm-none-eabi/5.4.1/../../../arm-none-eabi/lib/armv6-m/libg.a(lib_a-atexit.o)
 .debug_abbrev  0x0000268f       0xa7 /usr/lib/gcc/arm-none-eabi/5.4.1/../../../arm-none-eabi/lib/armv6-m/libg.a(lib_a-ctime.o)
 .debug_abbrev  0x00002736      0x1d6 /usr/lib/gcc/arm-none-eabi/5.4.1/../../../arm-none-eabi/lib/armv6-m/libg.a(lib_a-exit.o)
 .debug_abbrev  0x0000290c       0xba /usr/lib/gcc/arm-none-eabi/5.4.1/../../../arm-none-eabi/lib/armv6-m/libg.a(lib_a-fini.o)
 .debug_abbrev  0x000029c6      0x180 /usr/lib/gcc/arm-none-eabi/5.4.1/../../../arm-none-eabi/lib/armv6-m/libg.a(lib_a-impure.o)
 .debug_abbrev  0x00002b46       0xba /usr/lib/gcc/arm-none-eabi/5.4.1/../../../arm-none-eabi/lib/armv6-m/libg.a(lib_a-init.o)
 .debug_abbrev  0x00002c00      0x1e6 /usr/lib/gcc/arm-none-eabi/5.4.1/../../../arm-none-eabi/lib/armv6-m/libg.a(lib_a-lcltime.o)
 .debug_abbrev  0x00002de6      0x13a /usr/lib/gcc/arm-none-eabi/5.4.1/../../../arm-none-eabi/lib/armv6-m/libg.a(lib_a-lcltime_r.o)
 .debug_abbrev  0x00002f20      0x1e2 /usr/lib/gcc/arm-none-eabi/5.4.1/../../../arm-none-eabi/lib/armv6-m/libg.a(lib_a-malloc.o)
 .debug_abbrev  0x00003102      0x292 /usr/lib/gcc/arm-none-eabi/5.4.1/../../../arm-none-eabi/lib/armv6-m/libg.a(lib_a-mallocr.o)
 .debug_abbrev  0x00003394       0xb2 /usr/lib/gcc/arm-none-eabi/5.4.1/../../../arm-none-eabi/lib/armv6-m/libg.a(lib_a-memcpy-stub.o)
 .debug_abbrev  0x00003446       0xab /usr/lib/gcc/arm-none-eabi/5.4.1/../../../arm-none-eabi/lib/armv6-m/libg.a(lib_a-memmove.o)
 .debug_abbrev  0x000034f1       0x9f /usr/lib/gcc/arm-none-eabi/5.4.1/../../../arm-none-eabi/lib/armv6-m/libg.a(lib_a-memset.o)
 .debug_abbrev  0x00003590      0x1ac /usr/lib/gcc/arm-none-eabi/5.4.1/../../../arm-none-eabi/lib/armv6-m/libg.a(lib_a-mlock.o)
 .debug_abbrev  0x0000373c       0x50 /usr/lib/gcc/arm-none-eabi/5.4.1/../../../arm-none-eabi/lib/armv6-m/libg.a(lib_a-month_lengths.o)
 .debug_abbrev  0x0000378c      0x1fb /usr/lib/gcc/arm-none-eabi/5.4.1/../../../arm-none-eabi/lib/armv6-m/libg.a(lib_a-sbrkr.o)
 .debug_abbrev  0x00003987      0x21b /usr/lib/gcc/arm-none-eabi/5.4.1/../../../arm-none-eabi/lib/armv6-m/libg.a(lib_a-sprintf.o)
 .debug_abbrev  0x00003ba2      0x344 /usr/lib/gcc/arm-none-eabi/5.4.1/../../../arm-none-eabi/lib/armv6-m/libg.a(lib_a-svfprintf.o)
 .debug_abbrev  0x00003ee6      0x105 /usr/lib/gcc/arm-none-eabi/5.4.1/../../../arm-none-eabi/lib/armv6-m/libg.a(lib_a-tzcalc_limits.o)
 .debug_abbrev  0x00003feb       0x5a /usr/lib/gcc/arm-none-eabi/5.4.1/../../../arm-none-eabi/lib/armv6-m/libg.a(lib_a-tzlock.o)
 .debug_abbrev  0x00004045      0x1ab /usr/lib/gcc/arm-none-eabi/5.4.1/../../../arm-none-eabi/lib/armv6-m/libg.a(lib_a-tzset.o)
 .debug_abbrev  0x000041f0      0x234 /usr/lib/gcc/arm-none-eabi/5.4.1/../../../arm-none-eabi/lib/armv6-m/libg.a(lib_a-tzset_r.o)
 .debug_abbrev  0x00004424       0x52 /usr/lib/gcc/arm-none-eabi/5.4.1/../../../arm-none-eabi/lib/armv6-m/libg.a(lib_a-tzvars.o)
 .debug_abbrev  0x00004476      0x241 /usr/lib/gcc/arm-none-eabi/5.4.1/../../../arm-none-eabi/lib/armv6-m/libg.a(lib_a-vsnprintf.o)
 .debug_abbrev  0x000046b7      0x20f /usr/lib/gcc/arm-none-eabi/5.4.1/../../../arm-none-eabi/lib/armv6-m/libg.a(lib_a-__atexit.o)
 .debug_abbrev  0x000048c6      0x26d /usr/lib/gcc/arm-none-eabi/5.4.1/../../../arm-none-eabi/lib/armv6-m/libg.a(lib_a-__call_atexit.o)
 .debug_abbrev  0x00004b33      0x1e6 /usr/lib/gcc/arm-none-eabi/5.4.1/../../../arm-none-eabi/lib/armv6-m/libg.a(lib_a-asctime.o)
 .debug_abbrev  0x00004d19       0xd3 /usr/lib/gcc/arm-none-eabi/5.4.1/../../../arm-none-eabi/lib/armv6-m/libg.a(lib_a-asctime_r.o)
 .debug_abbrev  0x00004dec      0x2bc /usr/lib/gcc/arm-none-eabi/5.4.1/../../../arm-none-eabi/lib/armv6-m/libg.a(lib_a-dtoa.o)
 .debug_abbrev  0x000050a8      0x254 /usr/lib/gcc/arm-none-eabi/5.4.1/../../../arm-none-eabi/lib/armv6-m/libg.a(lib_a-freer.o)
 .debug_abbrev  0x000052fc      0x20d /usr/lib/gcc/arm-none-eabi/5.4.1/../../../arm-none-eabi/lib/armv6-m/libg.a(lib_a-getenv_r.o)
 .debug_abbrev  0x00005509       0xa8 /usr/lib/gcc/arm-none-eabi/5.4.1/../../../arm-none-eabi/lib/armv6-m/libg.a(lib_a-gettzinfo.o)
 .debug_abbrev  0x000055b1       0xc4 /usr/lib/gcc/arm-none-eabi/5.4.1/../../../arm-none-eabi/lib/armv6-m/libg.a(lib_a-gmtime_r.o)
 .debug_abbrev  0x00005675      0x29a /usr/lib/gcc/arm-none-eabi/5.4.1/../../../arm-none-eabi/lib/armv6-m/libg.a(lib_a-locale.o)
 .debug_abbrev  0x0000590f       0xab /usr/lib/gcc/arm-none-eabi/5.4.1/../../../arm-none-eabi/lib/armv6-m/libg.a(lib_a-memchr-stub.o)
 .debug_abbrev  0x000059ba      0x3de /usr/lib/gcc/arm-none-eabi/5.4.1/../../../arm-none-eabi/lib/armv6-m/libg.a(lib_a-mprec.o)
 .debug_abbrev  0x00005d98      0x24e /usr/lib/gcc/arm-none-eabi/5.4.1/../../../arm-none-eabi/lib/armv6-m/libg.a(lib_a-reent.o)
 .debug_abbrev  0x00005fe6      0x1f8 /usr/lib/gcc/arm-none-eabi/5.4.1/../../../arm-none-eabi/lib/armv6-m/libg.a(lib_a-siprintf.o)
 .debug_abbrev  0x000061de      0x205 /usr/lib/gcc/arm-none-eabi/5.4.1/../../../arm-none-eabi/lib/armv6-m/libg.a(lib_a-siscanf.o)
 .debug_abbrev  0x000063e3      0x20f /usr/lib/gcc/arm-none-eabi/5.4.1/../../../arm-none-eabi/lib/armv6-m/libg.a(lib_a-stdio.o)
 .debug_abbrev  0x000065f2       0x14 /usr/lib/gcc/arm-none-eabi/5.4.1/../../../arm-none-eabi/lib/armv6-m/libg.a(lib_a-strcmp.o)
 .debug_abbrev  0x00006606       0x72 /usr/lib/gcc/arm-none-eabi/5.4.1/../../../arm-none-eabi/lib/armv6-m/libg.a(lib_a-strcpy.o)
 .debug_abbrev  0x00006678       0x81 /usr/lib/gcc/arm-none-eabi/5.4.1/../../../arm-none-eabi/lib/armv6-m/libg.a(lib_a-strlen-stub.o)
 .debug_abbrev  0x000066f9       0x81 /usr/lib/gcc/arm-none-eabi/5.4.1/../../../arm-none-eabi/lib/armv6-m/libg.a(lib_a-strncmp.o)
 .debug_abbrev  0x0000677a      0x218 /usr/lib/gcc/arm-none-eabi/5.4.1/../../../arm-none-eabi/lib/armv6-m/libg.a(lib_a-strtoul.o)
 .debug_abbrev  0x00006992      0x2a3 /usr/lib/gcc/arm-none-eabi/5.4.1/../../../arm-none-eabi/lib/armv6-m/libg.a(lib_a-svfiprintf.o)
 .debug_abbrev  0x00006c35      0x31f /usr/lib/gcc/arm-none-eabi/5.4.1/../../../arm-none-eabi/lib/armv6-m/libg.a(lib_a-svfiscanf.o)
 .debug_abbrev  0x00006f54      0x2a8 /usr/lib/gcc/arm-none-eabi/5.4.1/../../../arm-none-eabi/lib/armv6-m/libg.a(lib_a-ungetc.o)
 .debug_abbrev  0x000071fc      0x1fb /usr/lib/gcc/arm-none-eabi/5.4.1/../../../arm-none-eabi/lib/armv6-m/libg.a(lib_a-writer.o)
 .debug_abbrev  0x000073f7      0x1fc /usr/lib/gcc/arm-none-eabi/5.4.1/../../../arm-none-eabi/lib/armv6-m/libg.a(lib_a-callocr.o)
 .debug_abbrev  0x000075f3      0x1f6 /usr/lib/gcc/arm-none-eabi/5.4.1/../../../arm-none-eabi/lib/armv6-m/libg.a(lib_a-closer.o)
 .debug_abbrev  0x000077e9       0x59 /usr/lib/gcc/arm-none-eabi/5.4.1/../../../arm-none-eabi/lib/armv6-m/libg.a(lib_a-ctype_.o)
 .debug_abbrev  0x00007842       0x56 /usr/lib/gcc/arm-none-eabi/5.4.1/../../../arm-none-eabi/lib/armv6-m/libg.a(lib_a-environ.o)
 .debug_abbrev  0x00007898      0x1ae /usr/lib/gcc/arm-none-eabi/5.4.1/../../../arm-none-eabi/lib/armv6-m/libg.a(lib_a-envlock.o)
 .debug_abbrev  0x00007a46      0x28a /usr/lib/gcc/arm-none-eabi/5.4.1/../../../arm-none-eabi/lib/armv6-m/libg.a(lib_a-fflush.o)
 .debug_abbrev  0x00007cd0      0x347 /usr/lib/gcc/arm-none-eabi/5.4.1/../../../arm-none-eabi/lib/armv6-m/libg.a(lib_a-findfp.o)
 .debug_abbrev  0x00008017      0x1c2 /usr/lib/gcc/arm-none-eabi/5.4.1/../../../arm-none-eabi/lib/armv6-m/libg.a(lib_a-fwalk.o)
 .debug_abbrev  0x000081d9       0x83 /usr/lib/gcc/arm-none-eabi/5.4.1/../../../arm-none-eabi/lib/armv6-m/libg.a(lib_a-iswspace.o)
 .debug_abbrev  0x0000825c      0x205 /usr/lib/gcc/arm-none-eabi/5.4.1/../../../arm-none-eabi/lib/armv6-m/libg.a(lib_a-lseekr.o)
 .debug_abbrev  0x00008461      0x218 /usr/lib/gcc/arm-none-eabi/5.4.1/../../../arm-none-eabi/lib/armv6-m/libg.a(lib_a-mbrtowc.o)
 .debug_abbrev  0x00008679      0x226 /usr/lib/gcc/arm-none-eabi/5.4.1/../../../arm-none-eabi/lib/armv6-m/libg.a(lib_a-mbtowc_r.o)
 .debug_abbrev  0x0000889f      0x1f6 /usr/lib/gcc/arm-none-eabi/5.4.1/../../../arm-none-eabi/lib/armv6-m/libg.a(lib_a-readr.o)
 .debug_abbrev  0x00008a95      0x221 /usr/lib/gcc/arm-none-eabi/5.4.1/../../../arm-none-eabi/lib/armv6-m/libg.a(lib_a-reallocr.o)
 .debug_abbrev  0x00008cb6       0x87 /usr/lib/gcc/arm-none-eabi/5.4.1/../../../arm-none-eabi/lib/armv6-m/libg.a(lib_a-sccl.o)
 .debug_abbrev  0x00008d3d      0x218 /usr/lib/gcc/arm-none-eabi/5.4.1/../../../arm-none-eabi/lib/armv6-m/libg.a(lib_a-strtol.o)
 .debug_abbrev  0x00008f55      0x1c5 /usr/lib/gcc/arm-none-eabi/5.4.1/../../../arm-none-eabi/lib/armv6-m/libg.a(lib_a-strtoll_r.o)
 .debug_abbrev  0x0000911a      0x1c5 /usr/lib/gcc/arm-none-eabi/5.4.1/../../../arm-none-eabi/lib/armv6-m/libg.a(lib_a-strtoull_r.o)
 .debug_abbrev  0x000092df      0x285 /usr/lib/gcc/arm-none-eabi/5.4.1/../../../arm-none-eabi/lib/armv6-m/libg.a(lib_a-fclose.o)
 .debug_abbrev  0x00009564       0x14 /usr/lib/gcc/arm-none-eabi/5.4.1/armv6-m/libgcc.a(_divsi3.o)
 .debug_abbrev  0x00009578       0x14 /usr/lib/gcc/arm-none-eabi/5.4.1/armv6-m/libgcc.a(_aeabi_uldivmod.o)
 .debug_abbrev  0x0000958c       0xe0 /usr/lib/gcc/arm-none-eabi/5.4.1/armv6-m/libgcc.a(_muldi3.o)
 .debug_abbrev  0x0000966c       0x89 /usr/lib/gcc/arm-none-eabi/5.4.1/armv6-m/libgcc.a(_udivmoddi4.o)
 .debug_abbrev  0x000096f5      0x13a /usr/lib/gcc/arm-none-eabi/5.4.1/armv6-m/libgcc.a(adddf3.o)
 .debug_abbrev  0x0000982f      0x133 /usr/lib/gcc/arm-none-eabi/5.4.1/armv6-m/libgcc.a(subdf3.o)
 .debug_abbrev  0x00009962      0x137 /usr/lib/gcc/arm-none-eabi/5.4.1/armv6-m/libgcc.a(unorddf2.o)
 .debug_abbrev  0x00009a99      0x126 /usr/lib/gcc/arm-none-eabi/5.4.1/armv6-m/libgcc.a(fixdfsi.o)
 .debug_abbrev  0x00009bbf      0x11e /usr/lib/gcc/arm-none-eabi/5.4.1/armv6-m/libgcc.a(floatsidf.o)
 .debug_abbrev  0x00009cdd      0x11e /usr/lib/gcc/arm-none-eabi/5.4.1/armv6-m/libgcc.a(floatunsidf.o)
 .debug_abbrev  0x00009dfb       0x14 /usr/lib/gcc/arm-none-eabi/5.4.1/armv6-m/libgcc.a(_clzdi2.o)
 .debug_abbrev  0x00009e0f       0x66 /usr/lib/gcc/arm-none-eabi/5.4.1/../../../arm-none-eabi/lib/armv6-m/libnosys.a(close.o)
 .debug_abbrev  0x00009e75       0x84 /usr/lib/gcc/arm-none-eabi/5.4.1/../../../arm-none-eabi/lib/armv6-m/libnosys.a(lseek.o)
 .debug_abbrev  0x00009ef9       0x8d /usr/lib/gcc/arm-none-eabi/5.4.1/../../../arm-none-eabi/lib/armv6-m/libnosys.a(read.o)
 .debug_abbrev  0x00009f86       0x92 /usr/lib/gcc/arm-none-eabi/5.4.1/../../../arm-none-eabi/lib/armv6-m/libnosys.a(sbrk.o)
 .debug_abbrev  0x0000a018       0x8d /usr/lib/gcc/arm-none-eabi/5.4.1/../../../arm-none-eabi/lib/armv6-m/libnosys.a(write.o)
 .debug_abbrev  0x0000a0a5       0x61 /usr/lib/gcc/arm-none-eabi/5.4.1/../../../arm-none-eabi/lib/armv6-m/libnosys.a(_exit.o)

.debug_aranges  0x00000000      0xed8
 .debug_aranges
                0x00000000       0x20 /usr/lib/gcc/arm-none-eabi/5.4.1/../../../arm-none-eabi/lib/armv6-m/crt0.o
 .debug_aranges
                0x00000020       0x20 debug.o
 .debug_aranges
                0x00000040       0x20 memory.o
 .debug_aranges
                0x00000060       0x20 conversion.o
 .debug_aranges
                0x00000080       0x20 circular_buffer.o
 .debug_aranges
                0x000000a0       0x20 platform.o
 .debug_aranges
                0x000000c0       0x18 logger_queue.o
 .debug_aranges
                0x000000d8       0x20 logger_helper.o
 .debug_aranges
                0x000000f8       0x20 logger.o
 .debug_aranges
                0x00000118       0x20 data_processing.o
 .debug_aranges
                0x00000138       0x20 timestamp.o
 .debug_aranges
                0x00000158       0x20 time_profiler.o
 .debug_aranges
                0x00000178       0x20 project3.o
 .debug_aranges
                0x00000198       0x20 main.o
 .debug_aranges
                0x000001b8       0x20 system_MKL25Z4.o
 .debug_aranges
                0x000001d8       0x20 mcg.o
 .debug_aranges
                0x000001f8       0x20 gpio.o
 .debug_aranges
                0x00000218       0x20 uart0.o
 .debug_aranges
                0x00000238       0x20 dma.o
 .debug_aranges
                0x00000258       0x20 nordic_driver.o
 .debug_aranges
                0x00000278       0x20 spi.o
 .debug_aranges
                0x00000298       0x20 timer0.o
 .debug_aranges
                0x000002b8       0x20 startup_MKL25Z4.o
 .debug_aranges
                0x000002d8       0x20 /usr/lib/gcc/arm-none-eabi/5.4.1/armv6-m/libgcc.a(_udivsi3.o)
 .debug_aranges
                0x000002f8       0x20 /usr/lib/gcc/arm-none-eabi/5.4.1/armv6-m/libgcc.a(_dvmd_tls.o)
 .debug_aranges
                0x00000318       0x20 /usr/lib/gcc/arm-none-eabi/5.4.1/armv6-m/libgcc.a(_arm_cmpdf2.o)
 .debug_aranges
                0x00000338       0x20 /usr/lib/gcc/arm-none-eabi/5.4.1/armv6-m/libgcc.a(floatunsisf.o)
 .debug_aranges
                0x00000358       0x20 /usr/lib/gcc/arm-none-eabi/5.4.1/armv6-m/libgcc.a(divdf3.o)
 .debug_aranges
                0x00000378       0x20 /usr/lib/gcc/arm-none-eabi/5.4.1/armv6-m/libgcc.a(eqdf2.o)
 .debug_aranges
                0x00000398       0x20 /usr/lib/gcc/arm-none-eabi/5.4.1/armv6-m/libgcc.a(gedf2.o)
 .debug_aranges
                0x000003b8       0x20 /usr/lib/gcc/arm-none-eabi/5.4.1/armv6-m/libgcc.a(ledf2.o)
 .debug_aranges
                0x000003d8       0x20 /usr/lib/gcc/arm-none-eabi/5.4.1/armv6-m/libgcc.a(muldf3.o)
 .debug_aranges
                0x000003f8       0x20 /usr/lib/gcc/arm-none-eabi/5.4.1/armv6-m/libgcc.a(extendsfdf2.o)
 .debug_aranges
                0x00000418       0x20 /usr/lib/gcc/arm-none-eabi/5.4.1/armv6-m/libgcc.a(truncdfsf2.o)
 .debug_aranges
                0x00000438       0x20 /usr/lib/gcc/arm-none-eabi/5.4.1/armv6-m/libgcc.a(_clzsi2.o)
 .debug_aranges
                0x00000458       0x20 /usr/lib/gcc/arm-none-eabi/5.4.1/../../../arm-none-eabi/lib/armv6-m/libg.a(lib_a-atexit.o)
 .debug_aranges
                0x00000478       0x20 /usr/lib/gcc/arm-none-eabi/5.4.1/../../../arm-none-eabi/lib/armv6-m/libg.a(lib_a-ctime.o)
 .debug_aranges
                0x00000498       0x20 /usr/lib/gcc/arm-none-eabi/5.4.1/../../../arm-none-eabi/lib/armv6-m/libg.a(lib_a-exit.o)
 .debug_aranges
                0x000004b8       0x20 /usr/lib/gcc/arm-none-eabi/5.4.1/../../../arm-none-eabi/lib/armv6-m/libg.a(lib_a-fini.o)
 .debug_aranges
                0x000004d8       0x18 /usr/lib/gcc/arm-none-eabi/5.4.1/../../../arm-none-eabi/lib/armv6-m/libg.a(lib_a-impure.o)
 .debug_aranges
                0x000004f0       0x20 /usr/lib/gcc/arm-none-eabi/5.4.1/../../../arm-none-eabi/lib/armv6-m/libg.a(lib_a-init.o)
 .debug_aranges
                0x00000510       0x20 /usr/lib/gcc/arm-none-eabi/5.4.1/../../../arm-none-eabi/lib/armv6-m/libg.a(lib_a-lcltime.o)
 .debug_aranges
                0x00000530       0x20 /usr/lib/gcc/arm-none-eabi/5.4.1/../../../arm-none-eabi/lib/armv6-m/libg.a(lib_a-lcltime_r.o)
 .debug_aranges
                0x00000550       0x20 /usr/lib/gcc/arm-none-eabi/5.4.1/../../../arm-none-eabi/lib/armv6-m/libg.a(lib_a-malloc.o)
 .debug_aranges
                0x00000570       0x20 /usr/lib/gcc/arm-none-eabi/5.4.1/../../../arm-none-eabi/lib/armv6-m/libg.a(lib_a-mallocr.o)
 .debug_aranges
                0x00000590       0x20 /usr/lib/gcc/arm-none-eabi/5.4.1/../../../arm-none-eabi/lib/armv6-m/libg.a(lib_a-memcpy-stub.o)
 .debug_aranges
                0x000005b0       0x20 /usr/lib/gcc/arm-none-eabi/5.4.1/../../../arm-none-eabi/lib/armv6-m/libg.a(lib_a-memmove.o)
 .debug_aranges
                0x000005d0       0x20 /usr/lib/gcc/arm-none-eabi/5.4.1/../../../arm-none-eabi/lib/armv6-m/libg.a(lib_a-memset.o)
 .debug_aranges
                0x000005f0       0x20 /usr/lib/gcc/arm-none-eabi/5.4.1/../../../arm-none-eabi/lib/armv6-m/libg.a(lib_a-mlock.o)
 .debug_aranges
                0x00000610       0x18 /usr/lib/gcc/arm-none-eabi/5.4.1/../../../arm-none-eabi/lib/armv6-m/libg.a(lib_a-month_lengths.o)
 .debug_aranges
                0x00000628       0x20 /usr/lib/gcc/arm-none-eabi/5.4.1/../../../arm-none-eabi/lib/armv6-m/libg.a(lib_a-sbrkr.o)
 .debug_aranges
                0x00000648       0x20 /usr/lib/gcc/arm-none-eabi/5.4.1/../../../arm-none-eabi/lib/armv6-m/libg.a(lib_a-sprintf.o)
 .debug_aranges
                0x00000668       0x20 /usr/lib/gcc/arm-none-eabi/5.4.1/../../../arm-none-eabi/lib/armv6-m/libg.a(lib_a-svfprintf.o)
 .debug_aranges
                0x00000688       0x20 /usr/lib/gcc/arm-none-eabi/5.4.1/../../../arm-none-eabi/lib/armv6-m/libg.a(lib_a-tzcalc_limits.o)
 .debug_aranges
                0x000006a8       0x20 /usr/lib/gcc/arm-none-eabi/5.4.1/../../../arm-none-eabi/lib/armv6-m/libg.a(lib_a-tzlock.o)
 .debug_aranges
                0x000006c8       0x20 /usr/lib/gcc/arm-none-eabi/5.4.1/../../../arm-none-eabi/lib/armv6-m/libg.a(lib_a-tzset.o)
 .debug_aranges
                0x000006e8       0x20 /usr/lib/gcc/arm-none-eabi/5.4.1/../../../arm-none-eabi/lib/armv6-m/libg.a(lib_a-tzset_r.o)
 .debug_aranges
                0x00000708       0x18 /usr/lib/gcc/arm-none-eabi/5.4.1/../../../arm-none-eabi/lib/armv6-m/libg.a(lib_a-tzvars.o)
 .debug_aranges
                0x00000720       0x20 /usr/lib/gcc/arm-none-eabi/5.4.1/../../../arm-none-eabi/lib/armv6-m/libg.a(lib_a-vsnprintf.o)
 .debug_aranges
                0x00000740       0x20 /usr/lib/gcc/arm-none-eabi/5.4.1/../../../arm-none-eabi/lib/armv6-m/libg.a(lib_a-__atexit.o)
 .debug_aranges
                0x00000760       0x28 /usr/lib/gcc/arm-none-eabi/5.4.1/../../../arm-none-eabi/lib/armv6-m/libg.a(lib_a-__call_atexit.o)
 .debug_aranges
                0x00000788       0x20 /usr/lib/gcc/arm-none-eabi/5.4.1/../../../arm-none-eabi/lib/armv6-m/libg.a(lib_a-asctime.o)
 .debug_aranges
                0x000007a8       0x20 /usr/lib/gcc/arm-none-eabi/5.4.1/../../../arm-none-eabi/lib/armv6-m/libg.a(lib_a-asctime_r.o)
 .debug_aranges
                0x000007c8       0x20 /usr/lib/gcc/arm-none-eabi/5.4.1/../../../arm-none-eabi/lib/armv6-m/libg.a(lib_a-dtoa.o)
 .debug_aranges
                0x000007e8       0x20 /usr/lib/gcc/arm-none-eabi/5.4.1/../../../arm-none-eabi/lib/armv6-m/libg.a(lib_a-freer.o)
 .debug_aranges
                0x00000808       0x20 /usr/lib/gcc/arm-none-eabi/5.4.1/../../../arm-none-eabi/lib/armv6-m/libg.a(lib_a-getenv_r.o)
 .debug_aranges
                0x00000828       0x20 /usr/lib/gcc/arm-none-eabi/5.4.1/../../../arm-none-eabi/lib/armv6-m/libg.a(lib_a-gettzinfo.o)
 .debug_aranges
                0x00000848       0x20 /usr/lib/gcc/arm-none-eabi/5.4.1/../../../arm-none-eabi/lib/armv6-m/libg.a(lib_a-gmtime_r.o)
 .debug_aranges
                0x00000868       0x20 /usr/lib/gcc/arm-none-eabi/5.4.1/../../../arm-none-eabi/lib/armv6-m/libg.a(lib_a-locale.o)
 .debug_aranges
                0x00000888       0x20 /usr/lib/gcc/arm-none-eabi/5.4.1/../../../arm-none-eabi/lib/armv6-m/libg.a(lib_a-memchr-stub.o)
 .debug_aranges
                0x000008a8       0x20 /usr/lib/gcc/arm-none-eabi/5.4.1/../../../arm-none-eabi/lib/armv6-m/libg.a(lib_a-mprec.o)
 .debug_aranges
                0x000008c8       0x20 /usr/lib/gcc/arm-none-eabi/5.4.1/../../../arm-none-eabi/lib/armv6-m/libg.a(lib_a-reent.o)
 .debug_aranges
                0x000008e8       0x20 /usr/lib/gcc/arm-none-eabi/5.4.1/../../../arm-none-eabi/lib/armv6-m/libg.a(lib_a-siprintf.o)
 .debug_aranges
                0x00000908       0x20 /usr/lib/gcc/arm-none-eabi/5.4.1/../../../arm-none-eabi/lib/armv6-m/libg.a(lib_a-siscanf.o)
 .debug_aranges
                0x00000928       0x20 /usr/lib/gcc/arm-none-eabi/5.4.1/../../../arm-none-eabi/lib/armv6-m/libg.a(lib_a-stdio.o)
 .debug_aranges
                0x00000948       0x20 /usr/lib/gcc/arm-none-eabi/5.4.1/../../../arm-none-eabi/lib/armv6-m/libg.a(lib_a-strcmp.o)
 .debug_aranges
                0x00000968       0x20 /usr/lib/gcc/arm-none-eabi/5.4.1/../../../arm-none-eabi/lib/armv6-m/libg.a(lib_a-strcpy.o)
 .debug_aranges
                0x00000988       0x20 /usr/lib/gcc/arm-none-eabi/5.4.1/../../../arm-none-eabi/lib/armv6-m/libg.a(lib_a-strlen-stub.o)
 .debug_aranges
                0x000009a8       0x20 /usr/lib/gcc/arm-none-eabi/5.4.1/../../../arm-none-eabi/lib/armv6-m/libg.a(lib_a-strncmp.o)
 .debug_aranges
                0x000009c8       0x20 /usr/lib/gcc/arm-none-eabi/5.4.1/../../../arm-none-eabi/lib/armv6-m/libg.a(lib_a-strtoul.o)
 .debug_aranges
                0x000009e8       0x20 /usr/lib/gcc/arm-none-eabi/5.4.1/../../../arm-none-eabi/lib/armv6-m/libg.a(lib_a-svfiprintf.o)
 .debug_aranges
                0x00000a08       0x20 /usr/lib/gcc/arm-none-eabi/5.4.1/../../../arm-none-eabi/lib/armv6-m/libg.a(lib_a-svfiscanf.o)
 .debug_aranges
                0x00000a28       0x20 /usr/lib/gcc/arm-none-eabi/5.4.1/../../../arm-none-eabi/lib/armv6-m/libg.a(lib_a-ungetc.o)
 .debug_aranges
                0x00000a48       0x20 /usr/lib/gcc/arm-none-eabi/5.4.1/../../../arm-none-eabi/lib/armv6-m/libg.a(lib_a-writer.o)
 .debug_aranges
                0x00000a68       0x20 /usr/lib/gcc/arm-none-eabi/5.4.1/../../../arm-none-eabi/lib/armv6-m/libg.a(lib_a-callocr.o)
 .debug_aranges
                0x00000a88       0x20 /usr/lib/gcc/arm-none-eabi/5.4.1/../../../arm-none-eabi/lib/armv6-m/libg.a(lib_a-closer.o)
 .debug_aranges
                0x00000aa8       0x18 /usr/lib/gcc/arm-none-eabi/5.4.1/../../../arm-none-eabi/lib/armv6-m/libg.a(lib_a-ctype_.o)
 .debug_aranges
                0x00000ac0       0x18 /usr/lib/gcc/arm-none-eabi/5.4.1/../../../arm-none-eabi/lib/armv6-m/libg.a(lib_a-environ.o)
 .debug_aranges
                0x00000ad8       0x20 /usr/lib/gcc/arm-none-eabi/5.4.1/../../../arm-none-eabi/lib/armv6-m/libg.a(lib_a-envlock.o)
 .debug_aranges
                0x00000af8       0x20 /usr/lib/gcc/arm-none-eabi/5.4.1/../../../arm-none-eabi/lib/armv6-m/libg.a(lib_a-fflush.o)
 .debug_aranges
                0x00000b18       0x20 /usr/lib/gcc/arm-none-eabi/5.4.1/../../../arm-none-eabi/lib/armv6-m/libg.a(lib_a-findfp.o)
 .debug_aranges
                0x00000b38       0x20 /usr/lib/gcc/arm-none-eabi/5.4.1/../../../arm-none-eabi/lib/armv6-m/libg.a(lib_a-fwalk.o)
 .debug_aranges
                0x00000b58       0x20 /usr/lib/gcc/arm-none-eabi/5.4.1/../../../arm-none-eabi/lib/armv6-m/libg.a(lib_a-iswspace.o)
 .debug_aranges
                0x00000b78       0x20 /usr/lib/gcc/arm-none-eabi/5.4.1/../../../arm-none-eabi/lib/armv6-m/libg.a(lib_a-lseekr.o)
 .debug_aranges
                0x00000b98       0x20 /usr/lib/gcc/arm-none-eabi/5.4.1/../../../arm-none-eabi/lib/armv6-m/libg.a(lib_a-mbrtowc.o)
 .debug_aranges
                0x00000bb8       0x20 /usr/lib/gcc/arm-none-eabi/5.4.1/../../../arm-none-eabi/lib/armv6-m/libg.a(lib_a-mbtowc_r.o)
 .debug_aranges
                0x00000bd8       0x20 /usr/lib/gcc/arm-none-eabi/5.4.1/../../../arm-none-eabi/lib/armv6-m/libg.a(lib_a-readr.o)
 .debug_aranges
                0x00000bf8       0x20 /usr/lib/gcc/arm-none-eabi/5.4.1/../../../arm-none-eabi/lib/armv6-m/libg.a(lib_a-reallocr.o)
 .debug_aranges
                0x00000c18       0x20 /usr/lib/gcc/arm-none-eabi/5.4.1/../../../arm-none-eabi/lib/armv6-m/libg.a(lib_a-sccl.o)
 .debug_aranges
                0x00000c38       0x20 /usr/lib/gcc/arm-none-eabi/5.4.1/../../../arm-none-eabi/lib/armv6-m/libg.a(lib_a-strtol.o)
 .debug_aranges
                0x00000c58       0x20 /usr/lib/gcc/arm-none-eabi/5.4.1/../../../arm-none-eabi/lib/armv6-m/libg.a(lib_a-strtoll_r.o)
 .debug_aranges
                0x00000c78       0x20 /usr/lib/gcc/arm-none-eabi/5.4.1/../../../arm-none-eabi/lib/armv6-m/libg.a(lib_a-strtoull_r.o)
 .debug_aranges
                0x00000c98       0x20 /usr/lib/gcc/arm-none-eabi/5.4.1/../../../arm-none-eabi/lib/armv6-m/libg.a(lib_a-fclose.o)
 .debug_aranges
                0x00000cb8       0x20 /usr/lib/gcc/arm-none-eabi/5.4.1/armv6-m/libgcc.a(_divsi3.o)
 .debug_aranges
                0x00000cd8       0x20 /usr/lib/gcc/arm-none-eabi/5.4.1/armv6-m/libgcc.a(_aeabi_uldivmod.o)
 .debug_aranges
                0x00000cf8       0x20 /usr/lib/gcc/arm-none-eabi/5.4.1/armv6-m/libgcc.a(_muldi3.o)
 .debug_aranges
                0x00000d18       0x20 /usr/lib/gcc/arm-none-eabi/5.4.1/armv6-m/libgcc.a(_udivmoddi4.o)
 .debug_aranges
                0x00000d38       0x20 /usr/lib/gcc/arm-none-eabi/5.4.1/armv6-m/libgcc.a(adddf3.o)
 .debug_aranges
                0x00000d58       0x20 /usr/lib/gcc/arm-none-eabi/5.4.1/armv6-m/libgcc.a(subdf3.o)
 .debug_aranges
                0x00000d78       0x20 /usr/lib/gcc/arm-none-eabi/5.4.1/armv6-m/libgcc.a(unorddf2.o)
 .debug_aranges
                0x00000d98       0x20 /usr/lib/gcc/arm-none-eabi/5.4.1/armv6-m/libgcc.a(fixdfsi.o)
 .debug_aranges
                0x00000db8       0x20 /usr/lib/gcc/arm-none-eabi/5.4.1/armv6-m/libgcc.a(floatsidf.o)
 .debug_aranges
                0x00000dd8       0x20 /usr/lib/gcc/arm-none-eabi/5.4.1/armv6-m/libgcc.a(floatunsidf.o)
 .debug_aranges
                0x00000df8       0x20 /usr/lib/gcc/arm-none-eabi/5.4.1/armv6-m/libgcc.a(_clzdi2.o)
 .debug_aranges
                0x00000e18       0x20 /usr/lib/gcc/arm-none-eabi/5.4.1/../../../arm-none-eabi/lib/armv6-m/libnosys.a(close.o)
 .debug_aranges
                0x00000e38       0x20 /usr/lib/gcc/arm-none-eabi/5.4.1/../../../arm-none-eabi/lib/armv6-m/libnosys.a(lseek.o)
 .debug_aranges
                0x00000e58       0x20 /usr/lib/gcc/arm-none-eabi/5.4.1/../../../arm-none-eabi/lib/armv6-m/libnosys.a(read.o)
 .debug_aranges
                0x00000e78       0x20 /usr/lib/gcc/arm-none-eabi/5.4.1/../../../arm-none-eabi/lib/armv6-m/libnosys.a(sbrk.o)
 .debug_aranges
                0x00000e98       0x20 /usr/lib/gcc/arm-none-eabi/5.4.1/../../../arm-none-eabi/lib/armv6-m/libnosys.a(write.o)
 .debug_aranges
                0x00000eb8       0x20 /usr/lib/gcc/arm-none-eabi/5.4.1/../../../arm-none-eabi/lib/armv6-m/libnosys.a(_exit.o)

.debug_macro    0x00000000     0xbf37
 .debug_macro   0x00000000      0x157 debug.o
 .debug_macro   0x00000157      0x82c debug.o
 .debug_macro   0x00000983       0x22 debug.o
 .debug_macro   0x000009a5       0x4f debug.o
 .debug_macro   0x000009f4       0x44 debug.o
 .debug_macro   0x00000a38       0xfd debug.o
 .debug_macro   0x00000b35       0x5e debug.o
 .debug_macro   0x00000b93      0x1df debug.o
 .debug_macro   0x00000d72       0x52 debug.o
 .debug_macro   0x00000dc4       0x35 debug.o
 .debug_macro   0x00000df9       0x9c debug.o
 .debug_macro   0x00000e95       0x16 debug.o
 .debug_macro   0x00000eab       0x97 debug.o
 .debug_macro   0x00000f42      0x330 debug.o
 .debug_macro   0x00001272       0xf6 debug.o
 .debug_macro   0x00001368       0x10 debug.o
 .debug_macro   0x00001378       0x52 debug.o
 .debug_macro   0x000013ca       0x1f debug.o
 .debug_macro   0x000013e9       0x43 debug.o
 .debug_macro   0x0000142c       0x20 debug.o
 .debug_macro   0x0000144c      0x187 debug.o
 .debug_macro   0x000015d3       0x10 debug.o
 .debug_macro   0x000015e3       0xb6 debug.o
 .debug_macro   0x00001699       0x16 debug.o
 .debug_macro   0x000016af      0x143 debug.o
 .debug_macro   0x000017f2      0x176 memory.o
 .debug_macro   0x00001968       0x16 memory.o
 .debug_macro   0x0000197e      0x10e memory.o
 .debug_macro   0x00001a8c       0x86 memory.o
 .debug_macro   0x00001b12       0x22 memory.o
 .debug_macro   0x00001b34       0x10 memory.o
 .debug_macro   0x00001b44       0x35 memory.o
 .debug_macro   0x00001b79       0x3c memory.o
 .debug_macro   0x00001bb5       0x28 memory.o
 .debug_macro   0x00001bdd       0x10 memory.o
 .debug_macro   0x00001bed      0x171 conversion.o
 .debug_macro   0x00001d5e       0x16 conversion.o
 .debug_macro   0x00001d74      0x15a circular_buffer.o
 .debug_macro   0x00001ece       0x8f platform.o
 .debug_macro   0x00001f5d       0x28 platform.o
 .debug_macro   0x00001f85       0x58 platform.o
 .debug_macro   0x00001fdd       0x11 logger_queue.o
 .debug_macro   0x00001fee      0x1fd logger_helper.o
 .debug_macro   0x000021eb       0x22 logger_helper.o
 .debug_macro   0x0000220d      0x16d logger_helper.o
 .debug_macro   0x0000237a       0x16 logger_helper.o
 .debug_macro   0x00002390       0x16 logger_helper.o
 .debug_macro   0x000023a6       0x10 logger_helper.o
 .debug_macro   0x000023b6       0x10 logger_helper.o
 .debug_macro   0x000023c6       0x2e logger_helper.o
 .debug_macro   0x000023f4      0x1ae logger.o
 .debug_macro   0x000025a2       0x1c logger.o
 .debug_macro   0x000025be       0x10 logger.o
 .debug_macro   0x000025ce      0x18a data_processing.o
 .debug_macro   0x00002758       0x1c data_processing.o
 .debug_macro   0x00002774      0x1dc timestamp.o
 .debug_macro   0x00002950       0x10 timestamp.o
 .debug_macro   0x00002960       0x10 timestamp.o
 .debug_macro   0x00002970       0x22 timestamp.o
 .debug_macro   0x00002992       0x4c timestamp.o
 .debug_macro   0x000029de       0x3a timestamp.o
 .debug_macro   0x00002a18       0x1f timestamp.o
 .debug_macro   0x00002a37      0x250 timestamp.o
 .debug_macro   0x00002c87       0x63 timestamp.o
 .debug_macro   0x00002cea     0x839f timestamp.o
 .debug_macro   0x0000b089       0xbd time_profiler.o
 .debug_macro   0x0000b146      0x296 project3.o
 .debug_macro   0x0000b3dc       0x2e project3.o
 .debug_macro   0x0000b40a       0x1b main.o
 .debug_macro   0x0000b425       0x9f system_MKL25Z4.o
 .debug_macro   0x0000b4c4      0x19b mcg.o
 .debug_macro   0x0000b65f       0x16 mcg.o
 .debug_macro   0x0000b675       0x3a mcg.o
 .debug_macro   0x0000b6af       0xae gpio.o
 .debug_macro   0x0000b75d      0x28f uart0.o
 .debug_macro   0x0000b9ec       0x2e uart0.o
 .debug_macro   0x0000ba1a       0xf8 dma.o
 .debug_macro   0x0000bb12      0x130 nordic_driver.o
 .debug_macro   0x0000bc42       0x28 nordic_driver.o
 .debug_macro   0x0000bc6a       0xe7 spi.o
 .debug_macro   0x0000bd51      0x1e6 timer0.o

.debug_str      0x00000000    0x399d1
 .debug_str     0x00000000     0x6128 debug.o
                               0x632b (size before relaxing)
 .debug_str     0x00006128      0x3eb memory.o
                               0x5fc3 (size before relaxing)
 .debug_str     0x00006513       0xdb conversion.o
                               0x5dfd (size before relaxing)
 .debug_str     0x000065ee      0x1e7 circular_buffer.o
                               0x5ecb (size before relaxing)
 .debug_str     0x000067d5      0x244 platform.o
                               0x342b (size before relaxing)
 .debug_str     0x00006a19        0xf logger_queue.o
                               0x22d7 (size before relaxing)
 .debug_str     0x00006a28      0x593 logger_helper.o
                               0x6bd5 (size before relaxing)
 .debug_str     0x00006fbb       0x5a logger.o
                               0x694f (size before relaxing)
 .debug_str     0x00007015      0x17c data_processing.o
                               0x4eab (size before relaxing)
 .debug_str     0x00007191    0x2eeef timestamp.o
                              0x354de (size before relaxing)
 .debug_str     0x00036080       0xb6 time_profiler.o
                              0x320b4 (size before relaxing)
 .debug_str     0x00036136      0x1d6 project3.o
                              0x35586 (size before relaxing)
 .debug_str     0x0003630c        0xc main.o
                               0x22e4 (size before relaxing)
 .debug_str     0x00036318       0x6b system_MKL25Z4.o
                              0x32066 (size before relaxing)
 .debug_str     0x00036383        0xf mcg.o
                              0x34d33 (size before relaxing)
 .debug_str     0x00036392      0x2c1 gpio.o
                              0x322c8 (size before relaxing)
 .debug_str     0x00036653      0x278 uart0.o
                              0x35f9f (size before relaxing)
 .debug_str     0x000368cb       0xf5 dma.o
                              0x329ca (size before relaxing)
 .debug_str     0x000369c0      0x331 nordic_driver.o
                              0x32720 (size before relaxing)
 .debug_str     0x00036cf1       0x96 spi.o
                              0x32676 (size before relaxing)
 .debug_str     0x00036d87      0x159 timer0.o
                              0x3507b (size before relaxing)
 .debug_str     0x00036ee0      0x189 /usr/lib/gcc/arm-none-eabi/5.4.1/armv6-m/libgcc.a(floatunsisf.o)
                                0x213 (size before relaxing)
 .debug_str     0x00037069      0x1ae /usr/lib/gcc/arm-none-eabi/5.4.1/armv6-m/libgcc.a(divdf3.o)
                                0x32e (size before relaxing)
 .debug_str     0x00037217       0x1e /usr/lib/gcc/arm-none-eabi/5.4.1/armv6-m/libgcc.a(eqdf2.o)
                                0x1e6 (size before relaxing)
 .debug_str     0x00037235       0x34 /usr/lib/gcc/arm-none-eabi/5.4.1/armv6-m/libgcc.a(gedf2.o)
                                0x20a (size before relaxing)
 .debug_str     0x00037269       0x10 /usr/lib/gcc/arm-none-eabi/5.4.1/armv6-m/libgcc.a(ledf2.o)
                                0x20a (size before relaxing)
 .debug_str     0x00037279      0x13b /usr/lib/gcc/arm-none-eabi/5.4.1/armv6-m/libgcc.a(muldf3.o)
                                0x38f (size before relaxing)
 .debug_str     0x000373b4       0x3c /usr/lib/gcc/arm-none-eabi/5.4.1/armv6-m/libgcc.a(extendsfdf2.o)
                                0x216 (size before relaxing)
 .debug_str     0x000373f0       0x19 /usr/lib/gcc/arm-none-eabi/5.4.1/armv6-m/libgcc.a(truncdfsf2.o)
                                0x221 (size before relaxing)
 .debug_str     0x00037409      0x127 /usr/lib/gcc/arm-none-eabi/5.4.1/../../../arm-none-eabi/lib/armv6-m/libg.a(lib_a-atexit.o)
                                0x1cc (size before relaxing)
 .debug_str     0x00037530       0x9b /usr/lib/gcc/arm-none-eabi/5.4.1/../../../arm-none-eabi/lib/armv6-m/libg.a(lib_a-ctime.o)
                                0x1a1 (size before relaxing)
 .debug_str     0x000375cb      0x3a9 /usr/lib/gcc/arm-none-eabi/5.4.1/../../../arm-none-eabi/lib/armv6-m/libg.a(lib_a-exit.o)
                                0x569 (size before relaxing)
 .debug_str     0x00037974       0xb8 /usr/lib/gcc/arm-none-eabi/5.4.1/../../../arm-none-eabi/lib/armv6-m/libg.a(lib_a-fini.o)
                                0x1c4 (size before relaxing)
 .debug_str     0x00037a2c       0x92 /usr/lib/gcc/arm-none-eabi/5.4.1/../../../arm-none-eabi/lib/armv6-m/libg.a(lib_a-impure.o)
                                0x560 (size before relaxing)
 .debug_str     0x00037abe       0x8a /usr/lib/gcc/arm-none-eabi/5.4.1/../../../arm-none-eabi/lib/armv6-m/libg.a(lib_a-init.o)
                                0x1ee (size before relaxing)
 .debug_str     0x00037b48       0x39 /usr/lib/gcc/arm-none-eabi/5.4.1/../../../arm-none-eabi/lib/armv6-m/libg.a(lib_a-lcltime.o)
                                0x5af (size before relaxing)
 .debug_str     0x00037b81      0x103 /usr/lib/gcc/arm-none-eabi/5.4.1/../../../arm-none-eabi/lib/armv6-m/libg.a(lib_a-lcltime_r.o)
                                0x2bf (size before relaxing)
 .debug_str     0x00037c84       0x4c /usr/lib/gcc/arm-none-eabi/5.4.1/../../../arm-none-eabi/lib/armv6-m/libg.a(lib_a-malloc.o)
                                0x574 (size before relaxing)
 .debug_str     0x00037cd0      0x217 /usr/lib/gcc/arm-none-eabi/5.4.1/../../../arm-none-eabi/lib/armv6-m/libg.a(lib_a-mallocr.o)
                                0x765 (size before relaxing)
 .debug_str     0x00037ee7       0xc1 /usr/lib/gcc/arm-none-eabi/5.4.1/../../../arm-none-eabi/lib/armv6-m/libg.a(lib_a-memcpy-stub.o)
                                0x1c8 (size before relaxing)
 .debug_str     0x00037fa8       0x9b /usr/lib/gcc/arm-none-eabi/5.4.1/../../../arm-none-eabi/lib/armv6-m/libg.a(lib_a-memmove.o)
                                0x1c2 (size before relaxing)
 .debug_str     0x00038043       0x3b /usr/lib/gcc/arm-none-eabi/5.4.1/../../../arm-none-eabi/lib/armv6-m/libg.a(lib_a-memset.o)
                                0x1a3 (size before relaxing)
 .debug_str     0x0003807e       0x42 /usr/lib/gcc/arm-none-eabi/5.4.1/../../../arm-none-eabi/lib/armv6-m/libg.a(lib_a-mlock.o)
                                0x55b (size before relaxing)
 .debug_str     0x000380c0       0x33 /usr/lib/gcc/arm-none-eabi/5.4.1/../../../arm-none-eabi/lib/armv6-m/libg.a(lib_a-month_lengths.o)
                                0x194 (size before relaxing)
 .debug_str     0x000380f3       0x37 /usr/lib/gcc/arm-none-eabi/5.4.1/../../../arm-none-eabi/lib/armv6-m/libg.a(lib_a-sbrkr.o)
                                0x557 (size before relaxing)
 .debug_str     0x0003812a       0xa7 /usr/lib/gcc/arm-none-eabi/5.4.1/../../../arm-none-eabi/lib/armv6-m/libg.a(lib_a-sprintf.o)
                                0x58d (size before relaxing)
 .debug_str     0x000381d1      0x20f /usr/lib/gcc/arm-none-eabi/5.4.1/../../../arm-none-eabi/lib/armv6-m/libg.a(lib_a-svfprintf.o)
                                0x773 (size before relaxing)
 .debug_str     0x000383e0       0x59 /usr/lib/gcc/arm-none-eabi/5.4.1/../../../arm-none-eabi/lib/armv6-m/libg.a(lib_a-tzcalc_limits.o)
                                0x254 (size before relaxing)
 .debug_str     0x00038439       0x3d /usr/lib/gcc/arm-none-eabi/5.4.1/../../../arm-none-eabi/lib/armv6-m/libg.a(lib_a-tzlock.o)
                                0x19a (size before relaxing)
 .debug_str     0x00038476       0x43 /usr/lib/gcc/arm-none-eabi/5.4.1/../../../arm-none-eabi/lib/armv6-m/libg.a(lib_a-tzset.o)
                                0x57c (size before relaxing)
 .debug_str     0x000384b9       0x95 /usr/lib/gcc/arm-none-eabi/5.4.1/../../../arm-none-eabi/lib/armv6-m/libg.a(lib_a-tzset_r.o)
                                0x682 (size before relaxing)
 .debug_str     0x0003854e       0x2c /usr/lib/gcc/arm-none-eabi/5.4.1/../../../arm-none-eabi/lib/armv6-m/libg.a(lib_a-tzvars.o)
                                0x199 (size before relaxing)
 .debug_str     0x0003857a       0x47 /usr/lib/gcc/arm-none-eabi/5.4.1/../../../arm-none-eabi/lib/armv6-m/libg.a(lib_a-vsnprintf.o)
                                0x59f (size before relaxing)
 .debug_str     0x000385c1       0x30 /usr/lib/gcc/arm-none-eabi/5.4.1/../../../arm-none-eabi/lib/armv6-m/libg.a(lib_a-__atexit.o)
                                0x5a1 (size before relaxing)
 .debug_str     0x000385f1       0x6b /usr/lib/gcc/arm-none-eabi/5.4.1/../../../arm-none-eabi/lib/armv6-m/libg.a(lib_a-__call_atexit.o)
                                0x5c0 (size before relaxing)
 .debug_str     0x0003865c       0x37 /usr/lib/gcc/arm-none-eabi/5.4.1/../../../arm-none-eabi/lib/armv6-m/libg.a(lib_a-asctime.o)
                                0x5a4 (size before relaxing)
 .debug_str     0x00038693       0x4a /usr/lib/gcc/arm-none-eabi/5.4.1/../../../arm-none-eabi/lib/armv6-m/libg.a(lib_a-asctime_r.o)
                                0x1f8 (size before relaxing)
 .debug_str     0x000386dd      0x14a /usr/lib/gcc/arm-none-eabi/5.4.1/../../../arm-none-eabi/lib/armv6-m/libg.a(lib_a-dtoa.o)
                                0x69f (size before relaxing)
 .debug_str     0x00038827       0x34 /usr/lib/gcc/arm-none-eabi/5.4.1/../../../arm-none-eabi/lib/armv6-m/libg.a(lib_a-freer.o)
                                0x6af (size before relaxing)
 .debug_str     0x0003885b       0x65 /usr/lib/gcc/arm-none-eabi/5.4.1/../../../arm-none-eabi/lib/armv6-m/libg.a(lib_a-getenv_r.o)
                                0x596 (size before relaxing)
 .debug_str     0x000388c0       0x2f /usr/lib/gcc/arm-none-eabi/5.4.1/../../../arm-none-eabi/lib/armv6-m/libg.a(lib_a-gettzinfo.o)
                                0x200 (size before relaxing)
 .debug_str     0x000388ef       0x5b /usr/lib/gcc/arm-none-eabi/5.4.1/../../../arm-none-eabi/lib/armv6-m/libg.a(lib_a-gmtime_r.o)
                                0x212 (size before relaxing)
 .debug_str     0x0003894a      0x255 /usr/lib/gcc/arm-none-eabi/5.4.1/../../../arm-none-eabi/lib/armv6-m/libg.a(lib_a-locale.o)
                                0x7bd (size before relaxing)
 .debug_str     0x00038b9f       0x45 /usr/lib/gcc/arm-none-eabi/5.4.1/../../../arm-none-eabi/lib/armv6-m/libg.a(lib_a-memchr-stub.o)
                                0x1bb (size before relaxing)
 .debug_str     0x00038be4       0x98 /usr/lib/gcc/arm-none-eabi/5.4.1/../../../arm-none-eabi/lib/armv6-m/libg.a(lib_a-mprec.o)
                                0x659 (size before relaxing)
 .debug_str     0x00038c7c       0x58 /usr/lib/gcc/arm-none-eabi/5.4.1/../../../arm-none-eabi/lib/armv6-m/libg.a(lib_a-reent.o)
                                0x57f (size before relaxing)
 .debug_str     0x00038cd4       0x49 /usr/lib/gcc/arm-none-eabi/5.4.1/../../../arm-none-eabi/lib/armv6-m/libg.a(lib_a-siprintf.o)
                                0x591 (size before relaxing)
 .debug_str     0x00038d1d       0x48 /usr/lib/gcc/arm-none-eabi/5.4.1/../../../arm-none-eabi/lib/armv6-m/libg.a(lib_a-siscanf.o)
                                0x596 (size before relaxing)
 .debug_str     0x00038d65       0x8c /usr/lib/gcc/arm-none-eabi/5.4.1/../../../arm-none-eabi/lib/armv6-m/libg.a(lib_a-stdio.o)
                                0x5b4 (size before relaxing)
 .debug_str     0x00038df1       0x36 /usr/lib/gcc/arm-none-eabi/5.4.1/../../../arm-none-eabi/lib/armv6-m/libg.a(lib_a-strcpy.o)
                                0x195 (size before relaxing)
 .debug_str     0x00038e27       0x3b /usr/lib/gcc/arm-none-eabi/5.4.1/../../../arm-none-eabi/lib/armv6-m/libg.a(lib_a-strlen-stub.o)
                                0x1b4 (size before relaxing)
 .debug_str     0x00038e62       0x2f /usr/lib/gcc/arm-none-eabi/5.4.1/../../../arm-none-eabi/lib/armv6-m/libg.a(lib_a-strncmp.o)
                                0x191 (size before relaxing)
 .debug_str     0x00038e91       0x62 /usr/lib/gcc/arm-none-eabi/5.4.1/../../../arm-none-eabi/lib/armv6-m/libg.a(lib_a-strtoul.o)
                                0x589 (size before relaxing)
 .debug_str     0x00038ef3       0x1a /usr/lib/gcc/arm-none-eabi/5.4.1/../../../arm-none-eabi/lib/armv6-m/libg.a(lib_a-svfiprintf.o)
                                0x6e6 (size before relaxing)
 .debug_str     0x00038f0d      0x118 /usr/lib/gcc/arm-none-eabi/5.4.1/../../../arm-none-eabi/lib/armv6-m/libg.a(lib_a-svfiscanf.o)
                                0x704 (size before relaxing)
 .debug_str     0x00039025       0x60 /usr/lib/gcc/arm-none-eabi/5.4.1/../../../arm-none-eabi/lib/armv6-m/libg.a(lib_a-ungetc.o)
                                0x5ab (size before relaxing)
 .debug_str     0x00039085       0x2d /usr/lib/gcc/arm-none-eabi/5.4.1/../../../arm-none-eabi/lib/armv6-m/libg.a(lib_a-writer.o)
                                0x554 (size before relaxing)
 .debug_str     0x000390b2        0xf /usr/lib/gcc/arm-none-eabi/5.4.1/../../../arm-none-eabi/lib/armv6-m/libg.a(lib_a-callocr.o)
                                0x599 (size before relaxing)
 .debug_str     0x000390c1       0x2d /usr/lib/gcc/arm-none-eabi/5.4.1/../../../arm-none-eabi/lib/armv6-m/libg.a(lib_a-closer.o)
                                0x544 (size before relaxing)
 .debug_str     0x000390ee       0x8e /usr/lib/gcc/arm-none-eabi/5.4.1/../../../arm-none-eabi/lib/armv6-m/libg.a(lib_a-ctype_.o)
                                0x195 (size before relaxing)
 .debug_str     0x0003917c       0x3b /usr/lib/gcc/arm-none-eabi/5.4.1/../../../arm-none-eabi/lib/armv6-m/libg.a(lib_a-environ.o)
                                0x106 (size before relaxing)
 .debug_str     0x000391b7       0x41 /usr/lib/gcc/arm-none-eabi/5.4.1/../../../arm-none-eabi/lib/armv6-m/libg.a(lib_a-envlock.o)
                                0x557 (size before relaxing)
 .debug_str     0x000391f8       0x5d /usr/lib/gcc/arm-none-eabi/5.4.1/../../../arm-none-eabi/lib/armv6-m/libg.a(lib_a-fflush.o)
                                0x5c0 (size before relaxing)
 .debug_str     0x00039255      0x106 /usr/lib/gcc/arm-none-eabi/5.4.1/../../../arm-none-eabi/lib/armv6-m/libg.a(lib_a-findfp.o)
                                0x676 (size before relaxing)
 .debug_str     0x0003935b       0x3b /usr/lib/gcc/arm-none-eabi/5.4.1/../../../arm-none-eabi/lib/armv6-m/libg.a(lib_a-fwalk.o)
                                0x565 (size before relaxing)
 .debug_str     0x00039396       0x2f /usr/lib/gcc/arm-none-eabi/5.4.1/../../../arm-none-eabi/lib/armv6-m/libg.a(lib_a-iswspace.o)
                                0x19f (size before relaxing)
 .debug_str     0x000393c5       0x34 /usr/lib/gcc/arm-none-eabi/5.4.1/../../../arm-none-eabi/lib/armv6-m/libg.a(lib_a-lseekr.o)
                                0x552 (size before relaxing)
 .debug_str     0x000393f9       0x47 /usr/lib/gcc/arm-none-eabi/5.4.1/../../../arm-none-eabi/lib/armv6-m/libg.a(lib_a-mbrtowc.o)
                                0x597 (size before relaxing)
 .debug_str     0x00039440       0x4f /usr/lib/gcc/arm-none-eabi/5.4.1/../../../arm-none-eabi/lib/armv6-m/libg.a(lib_a-mbtowc_r.o)
                                0x5a7 (size before relaxing)
 .debug_str     0x0003948f       0x2c /usr/lib/gcc/arm-none-eabi/5.4.1/../../../arm-none-eabi/lib/armv6-m/libg.a(lib_a-readr.o)
                                0x552 (size before relaxing)
 .debug_str     0x000394bb       0x4e /usr/lib/gcc/arm-none-eabi/5.4.1/../../../arm-none-eabi/lib/armv6-m/libg.a(lib_a-reallocr.o)
                                0x641 (size before relaxing)
 .debug_str     0x00039509       0x3b /usr/lib/gcc/arm-none-eabi/5.4.1/../../../arm-none-eabi/lib/armv6-m/libg.a(lib_a-sccl.o)
                                0x194 (size before relaxing)
 .debug_str     0x00039544       0x3f /usr/lib/gcc/arm-none-eabi/5.4.1/../../../arm-none-eabi/lib/armv6-m/libg.a(lib_a-strtol.o)
                                0x586 (size before relaxing)
 .debug_str     0x00039583       0x31 /usr/lib/gcc/arm-none-eabi/5.4.1/../../../arm-none-eabi/lib/armv6-m/libg.a(lib_a-strtoll_r.o)
                                0x577 (size before relaxing)
 .debug_str     0x000395b4       0x32 /usr/lib/gcc/arm-none-eabi/5.4.1/../../../arm-none-eabi/lib/armv6-m/libg.a(lib_a-strtoull_r.o)
                                0x579 (size before relaxing)
 .debug_str     0x000395e6       0x3e /usr/lib/gcc/arm-none-eabi/5.4.1/../../../arm-none-eabi/lib/armv6-m/libg.a(lib_a-fclose.o)
                                0x5ad (size before relaxing)
 .debug_str     0x00039624       0x5d /usr/lib/gcc/arm-none-eabi/5.4.1/armv6-m/libgcc.a(_muldi3.o)
                                0x212 (size before relaxing)
 .debug_str     0x00039681       0xad /usr/lib/gcc/arm-none-eabi/5.4.1/armv6-m/libgcc.a(_udivmoddi4.o)
                                0x1df (size before relaxing)
 .debug_str     0x0003972e       0x73 /usr/lib/gcc/arm-none-eabi/5.4.1/armv6-m/libgcc.a(adddf3.o)
                                0x276 (size before relaxing)
 .debug_str     0x000397a1       0x16 /usr/lib/gcc/arm-none-eabi/5.4.1/armv6-m/libgcc.a(subdf3.o)
                                0x276 (size before relaxing)
 .debug_str     0x000397b7       0x1a /usr/lib/gcc/arm-none-eabi/5.4.1/armv6-m/libgcc.a(unorddf2.o)
                                0x1f0 (size before relaxing)
 .debug_str     0x000397d1       0x2a /usr/lib/gcc/arm-none-eabi/5.4.1/armv6-m/libgcc.a(fixdfsi.o)
                                0x1f7 (size before relaxing)
 .debug_str     0x000397fb       0x18 /usr/lib/gcc/arm-none-eabi/5.4.1/armv6-m/libgcc.a(floatsidf.o)
                                0x20b (size before relaxing)
 .debug_str     0x00039813       0x1b /usr/lib/gcc/arm-none-eabi/5.4.1/armv6-m/libgcc.a(floatunsidf.o)
                                0x207 (size before relaxing)
 .debug_str     0x0003982e       0xca /usr/lib/gcc/arm-none-eabi/5.4.1/../../../arm-none-eabi/lib/armv6-m/libnosys.a(close.o)
                                0x175 (size before relaxing)
 .debug_str     0x000398f8       0x29 /usr/lib/gcc/arm-none-eabi/5.4.1/../../../arm-none-eabi/lib/armv6-m/libnosys.a(lseek.o)
                                0x173 (size before relaxing)
 .debug_str     0x00039921       0x28 /usr/lib/gcc/arm-none-eabi/5.4.1/../../../arm-none-eabi/lib/armv6-m/libnosys.a(read.o)
                                0x171 (size before relaxing)
 .debug_str     0x00039949       0x36 /usr/lib/gcc/arm-none-eabi/5.4.1/../../../arm-none-eabi/lib/armv6-m/libnosys.a(sbrk.o)
                                 0xe9 (size before relaxing)
 .debug_str     0x0003997f       0x29 /usr/lib/gcc/arm-none-eabi/5.4.1/../../../arm-none-eabi/lib/armv6-m/libnosys.a(write.o)
                                0x173 (size before relaxing)
 .debug_str     0x000399a8       0x29 /usr/lib/gcc/arm-none-eabi/5.4.1/../../../arm-none-eabi/lib/armv6-m/libnosys.a(_exit.o)
                                0x159 (size before relaxing)

.debug_frame    0x00000000     0x2c10
 .debug_frame   0x00000000       0x30 debug.o
 .debug_frame   0x00000030      0x130 memory.o
 .debug_frame   0x00000160       0xb0 conversion.o
 .debug_frame   0x00000210      0x110 circular_buffer.o
 .debug_frame   0x00000320       0x30 platform.o
 .debug_frame   0x00000350      0x2f0 logger_helper.o
 .debug_frame   0x00000640       0x30 logger.o
 .debug_frame   0x00000670       0x90 data_processing.o
 .debug_frame   0x00000700      0x120 timestamp.o
 .debug_frame   0x00000820       0xa4 time_profiler.o
 .debug_frame   0x000008c4       0x90 project3.o
 .debug_frame   0x00000954       0x2c main.o
 .debug_frame   0x00000980       0x4c system_MKL25Z4.o
 .debug_frame   0x000009cc       0x2c mcg.o
 .debug_frame   0x000009f8      0x2ec gpio.o
 .debug_frame   0x00000ce4      0x250 uart0.o
 .debug_frame   0x00000f34      0x158 dma.o
 .debug_frame   0x0000108c      0x27c nordic_driver.o
 .debug_frame   0x00001308      0x14c spi.o
 .debug_frame   0x00001454       0x84 timer0.o
 .debug_frame   0x000014d8       0x20 /usr/lib/gcc/arm-none-eabi/5.4.1/armv6-m/libgcc.a(_udivsi3.o)
 .debug_frame   0x000014f8       0x2c /usr/lib/gcc/arm-none-eabi/5.4.1/armv6-m/libgcc.a(floatunsisf.o)
 .debug_frame   0x00001524       0x3c /usr/lib/gcc/arm-none-eabi/5.4.1/armv6-m/libgcc.a(divdf3.o)
 .debug_frame   0x00001560       0x38 /usr/lib/gcc/arm-none-eabi/5.4.1/armv6-m/libgcc.a(eqdf2.o)
 .debug_frame   0x00001598       0x38 /usr/lib/gcc/arm-none-eabi/5.4.1/armv6-m/libgcc.a(gedf2.o)
 .debug_frame   0x000015d0       0x38 /usr/lib/gcc/arm-none-eabi/5.4.1/armv6-m/libgcc.a(ledf2.o)
 .debug_frame   0x00001608       0x3c /usr/lib/gcc/arm-none-eabi/5.4.1/armv6-m/libgcc.a(muldf3.o)
 .debug_frame   0x00001644       0x2c /usr/lib/gcc/arm-none-eabi/5.4.1/armv6-m/libgcc.a(extendsfdf2.o)
 .debug_frame   0x00001670       0x2c /usr/lib/gcc/arm-none-eabi/5.4.1/armv6-m/libgcc.a(truncdfsf2.o)
 .debug_frame   0x0000169c       0x28 /usr/lib/gcc/arm-none-eabi/5.4.1/../../../arm-none-eabi/lib/armv6-m/libg.a(lib_a-atexit.o)
 .debug_frame   0x000016c4       0x28 /usr/lib/gcc/arm-none-eabi/5.4.1/../../../arm-none-eabi/lib/armv6-m/libg.a(lib_a-ctime.o)
 .debug_frame   0x000016ec       0x28 /usr/lib/gcc/arm-none-eabi/5.4.1/../../../arm-none-eabi/lib/armv6-m/libg.a(lib_a-exit.o)
 .debug_frame   0x00001714       0x2c /usr/lib/gcc/arm-none-eabi/5.4.1/../../../arm-none-eabi/lib/armv6-m/libg.a(lib_a-fini.o)
 .debug_frame   0x00001740       0x2c /usr/lib/gcc/arm-none-eabi/5.4.1/../../../arm-none-eabi/lib/armv6-m/libg.a(lib_a-init.o)
 .debug_frame   0x0000176c       0x28 /usr/lib/gcc/arm-none-eabi/5.4.1/../../../arm-none-eabi/lib/armv6-m/libg.a(lib_a-lcltime.o)
 .debug_frame   0x00001794       0x34 /usr/lib/gcc/arm-none-eabi/5.4.1/../../../arm-none-eabi/lib/armv6-m/libg.a(lib_a-lcltime_r.o)
 .debug_frame   0x000017c8       0x40 /usr/lib/gcc/arm-none-eabi/5.4.1/../../../arm-none-eabi/lib/armv6-m/libg.a(lib_a-malloc.o)
 .debug_frame   0x00001808       0x3c /usr/lib/gcc/arm-none-eabi/5.4.1/../../../arm-none-eabi/lib/armv6-m/libg.a(lib_a-mallocr.o)
 .debug_frame   0x00001844       0x2c /usr/lib/gcc/arm-none-eabi/5.4.1/../../../arm-none-eabi/lib/armv6-m/libg.a(lib_a-memcpy-stub.o)
 .debug_frame   0x00001870       0x2c /usr/lib/gcc/arm-none-eabi/5.4.1/../../../arm-none-eabi/lib/armv6-m/libg.a(lib_a-memmove.o)
 .debug_frame   0x0000189c       0x2c /usr/lib/gcc/arm-none-eabi/5.4.1/../../../arm-none-eabi/lib/armv6-m/libg.a(lib_a-memset.o)
 .debug_frame   0x000018c8       0x30 /usr/lib/gcc/arm-none-eabi/5.4.1/../../../arm-none-eabi/lib/armv6-m/libg.a(lib_a-mlock.o)
 .debug_frame   0x000018f8       0x2c /usr/lib/gcc/arm-none-eabi/5.4.1/../../../arm-none-eabi/lib/armv6-m/libg.a(lib_a-sbrkr.o)
 .debug_frame   0x00001924       0x50 /usr/lib/gcc/arm-none-eabi/5.4.1/../../../arm-none-eabi/lib/armv6-m/libg.a(lib_a-sprintf.o)
 .debug_frame   0x00001974       0x3c /usr/lib/gcc/arm-none-eabi/5.4.1/../../../arm-none-eabi/lib/armv6-m/libg.a(lib_a-svfprintf.o)
 .debug_frame   0x000019b0       0x3c /usr/lib/gcc/arm-none-eabi/5.4.1/../../../arm-none-eabi/lib/armv6-m/libg.a(lib_a-tzcalc_limits.o)
 .debug_frame   0x000019ec       0x30 /usr/lib/gcc/arm-none-eabi/5.4.1/../../../arm-none-eabi/lib/armv6-m/libg.a(lib_a-tzlock.o)
 .debug_frame   0x00001a1c       0x40 /usr/lib/gcc/arm-none-eabi/5.4.1/../../../arm-none-eabi/lib/armv6-m/libg.a(lib_a-tzset.o)
 .debug_frame   0x00001a5c       0x54 /usr/lib/gcc/arm-none-eabi/5.4.1/../../../arm-none-eabi/lib/armv6-m/libg.a(lib_a-tzset_r.o)
 .debug_frame   0x00001ab0       0x48 /usr/lib/gcc/arm-none-eabi/5.4.1/../../../arm-none-eabi/lib/armv6-m/libg.a(lib_a-vsnprintf.o)
 .debug_frame   0x00001af8       0x3c /usr/lib/gcc/arm-none-eabi/5.4.1/../../../arm-none-eabi/lib/armv6-m/libg.a(lib_a-__atexit.o)
 .debug_frame   0x00001b34       0x54 /usr/lib/gcc/arm-none-eabi/5.4.1/../../../arm-none-eabi/lib/armv6-m/libg.a(lib_a-__call_atexit.o)
 .debug_frame   0x00001b88       0x28 /usr/lib/gcc/arm-none-eabi/5.4.1/../../../arm-none-eabi/lib/armv6-m/libg.a(lib_a-asctime.o)
 .debug_frame   0x00001bb0       0x2c /usr/lib/gcc/arm-none-eabi/5.4.1/../../../arm-none-eabi/lib/armv6-m/libg.a(lib_a-asctime_r.o)
 .debug_frame   0x00001bdc       0x68 /usr/lib/gcc/arm-none-eabi/5.4.1/../../../arm-none-eabi/lib/armv6-m/libg.a(lib_a-dtoa.o)
 .debug_frame   0x00001c44       0x54 /usr/lib/gcc/arm-none-eabi/5.4.1/../../../arm-none-eabi/lib/armv6-m/libg.a(lib_a-freer.o)
 .debug_frame   0x00001c98       0x50 /usr/lib/gcc/arm-none-eabi/5.4.1/../../../arm-none-eabi/lib/armv6-m/libg.a(lib_a-getenv_r.o)
 .debug_frame   0x00001ce8       0x20 /usr/lib/gcc/arm-none-eabi/5.4.1/../../../arm-none-eabi/lib/armv6-m/libg.a(lib_a-gettzinfo.o)
 .debug_frame   0x00001d08       0x38 /usr/lib/gcc/arm-none-eabi/5.4.1/../../../arm-none-eabi/lib/armv6-m/libg.a(lib_a-gmtime_r.o)
 .debug_frame   0x00001d40       0xa4 /usr/lib/gcc/arm-none-eabi/5.4.1/../../../arm-none-eabi/lib/armv6-m/libg.a(lib_a-locale.o)
 .debug_frame   0x00001de4       0x2c /usr/lib/gcc/arm-none-eabi/5.4.1/../../../arm-none-eabi/lib/armv6-m/libg.a(lib_a-memchr-stub.o)
 .debug_frame   0x00001e10      0x258 /usr/lib/gcc/arm-none-eabi/5.4.1/../../../arm-none-eabi/lib/armv6-m/libg.a(lib_a-mprec.o)
 .debug_frame   0x00002068       0x48 /usr/lib/gcc/arm-none-eabi/5.4.1/../../../arm-none-eabi/lib/armv6-m/libg.a(lib_a-reent.o)
 .debug_frame   0x000020b0       0x50 /usr/lib/gcc/arm-none-eabi/5.4.1/../../../arm-none-eabi/lib/armv6-m/libg.a(lib_a-siprintf.o)
 .debug_frame   0x00002100       0x58 /usr/lib/gcc/arm-none-eabi/5.4.1/../../../arm-none-eabi/lib/armv6-m/libg.a(lib_a-siscanf.o)
 .debug_frame   0x00002158       0x90 /usr/lib/gcc/arm-none-eabi/5.4.1/../../../arm-none-eabi/lib/armv6-m/libg.a(lib_a-stdio.o)
 .debug_frame   0x000021e8       0x20 /usr/lib/gcc/arm-none-eabi/5.4.1/../../../arm-none-eabi/lib/armv6-m/libg.a(lib_a-strcmp.o)
 .debug_frame   0x00002208       0x20 /usr/lib/gcc/arm-none-eabi/5.4.1/../../../arm-none-eabi/lib/armv6-m/libg.a(lib_a-strcpy.o)
 .debug_frame   0x00002228       0x28 /usr/lib/gcc/arm-none-eabi/5.4.1/../../../arm-none-eabi/lib/armv6-m/libg.a(lib_a-strlen-stub.o)
 .debug_frame   0x00002250       0x2c /usr/lib/gcc/arm-none-eabi/5.4.1/../../../arm-none-eabi/lib/armv6-m/libg.a(lib_a-strncmp.o)
 .debug_frame   0x0000227c       0x54 /usr/lib/gcc/arm-none-eabi/5.4.1/../../../arm-none-eabi/lib/armv6-m/libg.a(lib_a-strtoul.o)
 .debug_frame   0x000022d0       0x68 /usr/lib/gcc/arm-none-eabi/5.4.1/../../../arm-none-eabi/lib/armv6-m/libg.a(lib_a-svfiprintf.o)
 .debug_frame   0x00002338       0x9c /usr/lib/gcc/arm-none-eabi/5.4.1/../../../arm-none-eabi/lib/armv6-m/libg.a(lib_a-svfiscanf.o)
 .debug_frame   0x000023d4       0x6c /usr/lib/gcc/arm-none-eabi/5.4.1/../../../arm-none-eabi/lib/armv6-m/libg.a(lib_a-ungetc.o)
 .debug_frame   0x00002440       0x2c /usr/lib/gcc/arm-none-eabi/5.4.1/../../../arm-none-eabi/lib/armv6-m/libg.a(lib_a-writer.o)
 .debug_frame   0x0000246c       0x28 /usr/lib/gcc/arm-none-eabi/5.4.1/../../../arm-none-eabi/lib/armv6-m/libg.a(lib_a-callocr.o)
 .debug_frame   0x00002494       0x2c /usr/lib/gcc/arm-none-eabi/5.4.1/../../../arm-none-eabi/lib/armv6-m/libg.a(lib_a-closer.o)
 .debug_frame   0x000024c0       0x30 /usr/lib/gcc/arm-none-eabi/5.4.1/../../../arm-none-eabi/lib/armv6-m/libg.a(lib_a-envlock.o)
 .debug_frame   0x000024f0       0x68 /usr/lib/gcc/arm-none-eabi/5.4.1/../../../arm-none-eabi/lib/armv6-m/libg.a(lib_a-fflush.o)
 .debug_frame   0x00002558      0x14c /usr/lib/gcc/arm-none-eabi/5.4.1/../../../arm-none-eabi/lib/armv6-m/libg.a(lib_a-findfp.o)
 .debug_frame   0x000026a4       0x5c /usr/lib/gcc/arm-none-eabi/5.4.1/../../../arm-none-eabi/lib/armv6-m/libg.a(lib_a-fwalk.o)
 .debug_frame   0x00002700       0x20 /usr/lib/gcc/arm-none-eabi/5.4.1/../../../arm-none-eabi/lib/armv6-m/libg.a(lib_a-iswspace.o)
 .debug_frame   0x00002720       0x2c /usr/lib/gcc/arm-none-eabi/5.4.1/../../../arm-none-eabi/lib/armv6-m/libg.a(lib_a-lseekr.o)
 .debug_frame   0x0000274c       0x60 /usr/lib/gcc/arm-none-eabi/5.4.1/../../../arm-none-eabi/lib/armv6-m/libg.a(lib_a-mbrtowc.o)
 .debug_frame   0x000027ac       0x4c /usr/lib/gcc/arm-none-eabi/5.4.1/../../../arm-none-eabi/lib/armv6-m/libg.a(lib_a-mbtowc_r.o)
 .debug_frame   0x000027f8       0x2c /usr/lib/gcc/arm-none-eabi/5.4.1/../../../arm-none-eabi/lib/armv6-m/libg.a(lib_a-readr.o)
 .debug_frame   0x00002824       0x3c /usr/lib/gcc/arm-none-eabi/5.4.1/../../../arm-none-eabi/lib/armv6-m/libg.a(lib_a-reallocr.o)
 .debug_frame   0x00002860       0x2c /usr/lib/gcc/arm-none-eabi/5.4.1/../../../arm-none-eabi/lib/armv6-m/libg.a(lib_a-sccl.o)
 .debug_frame   0x0000288c       0x54 /usr/lib/gcc/arm-none-eabi/5.4.1/../../../arm-none-eabi/lib/armv6-m/libg.a(lib_a-strtol.o)
 .debug_frame   0x000028e0       0x3c /usr/lib/gcc/arm-none-eabi/5.4.1/../../../arm-none-eabi/lib/armv6-m/libg.a(lib_a-strtoll_r.o)
 .debug_frame   0x0000291c       0x3c /usr/lib/gcc/arm-none-eabi/5.4.1/../../../arm-none-eabi/lib/armv6-m/libg.a(lib_a-strtoull_r.o)
 .debug_frame   0x00002958       0x44 /usr/lib/gcc/arm-none-eabi/5.4.1/../../../arm-none-eabi/lib/armv6-m/libg.a(lib_a-fclose.o)
 .debug_frame   0x0000299c       0x20 /usr/lib/gcc/arm-none-eabi/5.4.1/armv6-m/libgcc.a(_divsi3.o)
 .debug_frame   0x000029bc       0x34 /usr/lib/gcc/arm-none-eabi/5.4.1/armv6-m/libgcc.a(_muldi3.o)
 .debug_frame   0x000029f0       0x3c /usr/lib/gcc/arm-none-eabi/5.4.1/armv6-m/libgcc.a(_udivmoddi4.o)
 .debug_frame   0x00002a2c       0x3c /usr/lib/gcc/arm-none-eabi/5.4.1/armv6-m/libgcc.a(adddf3.o)
 .debug_frame   0x00002a68       0x38 /usr/lib/gcc/arm-none-eabi/5.4.1/armv6-m/libgcc.a(subdf3.o)
 .debug_frame   0x00002aa0       0x2c /usr/lib/gcc/arm-none-eabi/5.4.1/armv6-m/libgcc.a(unorddf2.o)
 .debug_frame   0x00002acc       0x2c /usr/lib/gcc/arm-none-eabi/5.4.1/armv6-m/libgcc.a(fixdfsi.o)
 .debug_frame   0x00002af8       0x2c /usr/lib/gcc/arm-none-eabi/5.4.1/armv6-m/libgcc.a(floatsidf.o)
 .debug_frame   0x00002b24       0x2c /usr/lib/gcc/arm-none-eabi/5.4.1/armv6-m/libgcc.a(floatunsidf.o)
 .debug_frame   0x00002b50       0x20 /usr/lib/gcc/arm-none-eabi/5.4.1/../../../arm-none-eabi/lib/armv6-m/libnosys.a(close.o)
 .debug_frame   0x00002b70       0x20 /usr/lib/gcc/arm-none-eabi/5.4.1/../../../arm-none-eabi/lib/armv6-m/libnosys.a(lseek.o)
 .debug_frame   0x00002b90       0x20 /usr/lib/gcc/arm-none-eabi/5.4.1/../../../arm-none-eabi/lib/armv6-m/libnosys.a(read.o)
 .debug_frame   0x00002bb0       0x20 /usr/lib/gcc/arm-none-eabi/5.4.1/../../../arm-none-eabi/lib/armv6-m/libnosys.a(sbrk.o)
 .debug_frame   0x00002bd0       0x20 /usr/lib/gcc/arm-none-eabi/5.4.1/../../../arm-none-eabi/lib/armv6-m/libnosys.a(write.o)
 .debug_frame   0x00002bf0       0x20 /usr/lib/gcc/arm-none-eabi/5.4.1/../../../arm-none-eabi/lib/armv6-m/libnosys.a(_exit.o)

.debug_ranges   0x00000000     0x1080
 .debug_ranges  0x00000000       0x18 uart0.o
 .debug_ranges  0x00000018       0x20 /usr/lib/gcc/arm-none-eabi/5.4.1/armv6-m/libgcc.a(floatunsisf.o)
 .debug_ranges  0x00000038      0x148 /usr/lib/gcc/arm-none-eabi/5.4.1/armv6-m/libgcc.a(divdf3.o)
 .debug_ranges  0x00000180       0x18 /usr/lib/gcc/arm-none-eabi/5.4.1/armv6-m/libgcc.a(eqdf2.o)
 .debug_ranges  0x00000198       0x58 /usr/lib/gcc/arm-none-eabi/5.4.1/armv6-m/libgcc.a(gedf2.o)
 .debug_ranges  0x000001f0       0x58 /usr/lib/gcc/arm-none-eabi/5.4.1/armv6-m/libgcc.a(ledf2.o)
 .debug_ranges  0x00000248      0x188 /usr/lib/gcc/arm-none-eabi/5.4.1/armv6-m/libgcc.a(muldf3.o)
 .debug_ranges  0x000003d0       0x38 /usr/lib/gcc/arm-none-eabi/5.4.1/armv6-m/libgcc.a(extendsfdf2.o)
 .debug_ranges  0x00000408       0x40 /usr/lib/gcc/arm-none-eabi/5.4.1/armv6-m/libgcc.a(truncdfsf2.o)
 .debug_ranges  0x00000448       0x40 /usr/lib/gcc/arm-none-eabi/5.4.1/../../../arm-none-eabi/lib/armv6-m/libg.a(lib_a-mallocr.o)
 .debug_ranges  0x00000488      0x120 /usr/lib/gcc/arm-none-eabi/5.4.1/../../../arm-none-eabi/lib/armv6-m/libg.a(lib_a-svfprintf.o)
 .debug_ranges  0x000005a8       0x38 /usr/lib/gcc/arm-none-eabi/5.4.1/../../../arm-none-eabi/lib/armv6-m/libg.a(lib_a-tzcalc_limits.o)
 .debug_ranges  0x000005e0       0x20 /usr/lib/gcc/arm-none-eabi/5.4.1/../../../arm-none-eabi/lib/armv6-m/libg.a(lib_a-tzset_r.o)
 .debug_ranges  0x00000600       0x48 /usr/lib/gcc/arm-none-eabi/5.4.1/../../../arm-none-eabi/lib/armv6-m/libg.a(lib_a-__call_atexit.o)
 .debug_ranges  0x00000648       0x18 /usr/lib/gcc/arm-none-eabi/5.4.1/../../../arm-none-eabi/lib/armv6-m/libg.a(lib_a-locale.o)
 .debug_ranges  0x00000660       0x58 /usr/lib/gcc/arm-none-eabi/5.4.1/../../../arm-none-eabi/lib/armv6-m/libg.a(lib_a-mprec.o)
 .debug_ranges  0x000006b8       0x10 /usr/lib/gcc/arm-none-eabi/5.4.1/../../../arm-none-eabi/lib/armv6-m/libg.a(lib_a-strcpy.o)
 .debug_ranges  0x000006c8       0x48 /usr/lib/gcc/arm-none-eabi/5.4.1/../../../arm-none-eabi/lib/armv6-m/libg.a(lib_a-svfiprintf.o)
 .debug_ranges  0x00000710       0xc8 /usr/lib/gcc/arm-none-eabi/5.4.1/../../../arm-none-eabi/lib/armv6-m/libg.a(lib_a-svfiscanf.o)
 .debug_ranges  0x000007d8       0x18 /usr/lib/gcc/arm-none-eabi/5.4.1/../../../arm-none-eabi/lib/armv6-m/libg.a(lib_a-ungetc.o)
 .debug_ranges  0x000007f0       0x18 /usr/lib/gcc/arm-none-eabi/5.4.1/../../../arm-none-eabi/lib/armv6-m/libg.a(lib_a-writer.o)
 .debug_ranges  0x00000808       0x38 /usr/lib/gcc/arm-none-eabi/5.4.1/../../../arm-none-eabi/lib/armv6-m/libg.a(lib_a-callocr.o)
 .debug_ranges  0x00000840       0x20 /usr/lib/gcc/arm-none-eabi/5.4.1/../../../arm-none-eabi/lib/armv6-m/libg.a(lib_a-closer.o)
 .debug_ranges  0x00000860       0x38 /usr/lib/gcc/arm-none-eabi/5.4.1/../../../arm-none-eabi/lib/armv6-m/libg.a(lib_a-fflush.o)
 .debug_ranges  0x00000898       0x30 /usr/lib/gcc/arm-none-eabi/5.4.1/../../../arm-none-eabi/lib/armv6-m/libg.a(lib_a-findfp.o)
 .debug_ranges  0x000008c8       0x18 /usr/lib/gcc/arm-none-eabi/5.4.1/../../../arm-none-eabi/lib/armv6-m/libg.a(lib_a-lseekr.o)
 .debug_ranges  0x000008e0       0x18 /usr/lib/gcc/arm-none-eabi/5.4.1/../../../arm-none-eabi/lib/armv6-m/libg.a(lib_a-readr.o)
 .debug_ranges  0x000008f8      0x170 /usr/lib/gcc/arm-none-eabi/5.4.1/../../../arm-none-eabi/lib/armv6-m/libg.a(lib_a-reallocr.o)
 .debug_ranges  0x00000a68       0x10 /usr/lib/gcc/arm-none-eabi/5.4.1/../../../arm-none-eabi/lib/armv6-m/libg.a(lib_a-sccl.o)
 .debug_ranges  0x00000a78       0x30 /usr/lib/gcc/arm-none-eabi/5.4.1/../../../arm-none-eabi/lib/armv6-m/libg.a(lib_a-fclose.o)
 .debug_ranges  0x00000aa8       0x20 /usr/lib/gcc/arm-none-eabi/5.4.1/armv6-m/libgcc.a(_muldi3.o)
 .debug_ranges  0x00000ac8      0x268 /usr/lib/gcc/arm-none-eabi/5.4.1/armv6-m/libgcc.a(adddf3.o)
 .debug_ranges  0x00000d30      0x280 /usr/lib/gcc/arm-none-eabi/5.4.1/armv6-m/libgcc.a(subdf3.o)
 .debug_ranges  0x00000fb0       0x40 /usr/lib/gcc/arm-none-eabi/5.4.1/armv6-m/libgcc.a(unorddf2.o)
 .debug_ranges  0x00000ff0       0x30 /usr/lib/gcc/arm-none-eabi/5.4.1/armv6-m/libgcc.a(fixdfsi.o)
 .debug_ranges  0x00001020       0x30 /usr/lib/gcc/arm-none-eabi/5.4.1/armv6-m/libgcc.a(floatsidf.o)
 .debug_ranges  0x00001050       0x30 /usr/lib/gcc/arm-none-eabi/5.4.1/armv6-m/libgcc.a(floatunsidf.o)

.debug_loc      0x00000000    0x1ab30
 .debug_loc     0x00000000      0x1b5 /usr/lib/gcc/arm-none-eabi/5.4.1/armv6-m/libgcc.a(floatunsisf.o)
 .debug_loc     0x000001b5     0x2122 /usr/lib/gcc/arm-none-eabi/5.4.1/armv6-m/libgcc.a(divdf3.o)
 .debug_loc     0x000022d7      0x1a9 /usr/lib/gcc/arm-none-eabi/5.4.1/armv6-m/libgcc.a(eqdf2.o)
 .debug_loc     0x00002480      0x2e8 /usr/lib/gcc/arm-none-eabi/5.4.1/armv6-m/libgcc.a(gedf2.o)
 .debug_loc     0x00002768      0x2f2 /usr/lib/gcc/arm-none-eabi/5.4.1/armv6-m/libgcc.a(ledf2.o)
 .debug_loc     0x00002a5a     0x11d2 /usr/lib/gcc/arm-none-eabi/5.4.1/armv6-m/libgcc.a(muldf3.o)
 .debug_loc     0x00003c2c      0x2c8 /usr/lib/gcc/arm-none-eabi/5.4.1/armv6-m/libgcc.a(extendsfdf2.o)
 .debug_loc     0x00003ef4      0x27a /usr/lib/gcc/arm-none-eabi/5.4.1/armv6-m/libgcc.a(truncdfsf2.o)
 .debug_loc     0x0000416e       0x2c /usr/lib/gcc/arm-none-eabi/5.4.1/../../../arm-none-eabi/lib/armv6-m/libg.a(lib_a-atexit.o)
 .debug_loc     0x0000419a       0x21 /usr/lib/gcc/arm-none-eabi/5.4.1/../../../arm-none-eabi/lib/armv6-m/libg.a(lib_a-ctime.o)
 .debug_loc     0x000041bb       0x1e /usr/lib/gcc/arm-none-eabi/5.4.1/../../../arm-none-eabi/lib/armv6-m/libg.a(lib_a-exit.o)
 .debug_loc     0x000041d9       0x3e /usr/lib/gcc/arm-none-eabi/5.4.1/../../../arm-none-eabi/lib/armv6-m/libg.a(lib_a-fini.o)
 .debug_loc     0x00004217       0x84 /usr/lib/gcc/arm-none-eabi/5.4.1/../../../arm-none-eabi/lib/armv6-m/libg.a(lib_a-init.o)
 .debug_loc     0x0000429b       0x35 /usr/lib/gcc/arm-none-eabi/5.4.1/../../../arm-none-eabi/lib/armv6-m/libg.a(lib_a-lcltime.o)
 .debug_loc     0x000042d0      0x26a /usr/lib/gcc/arm-none-eabi/5.4.1/../../../arm-none-eabi/lib/armv6-m/libg.a(lib_a-lcltime_r.o)
 .debug_loc     0x0000453a       0x58 /usr/lib/gcc/arm-none-eabi/5.4.1/../../../arm-none-eabi/lib/armv6-m/libg.a(lib_a-malloc.o)
 .debug_loc     0x00004592      0xc8c /usr/lib/gcc/arm-none-eabi/5.4.1/../../../arm-none-eabi/lib/armv6-m/libg.a(lib_a-mallocr.o)
 .debug_loc     0x0000521e      0x34a /usr/lib/gcc/arm-none-eabi/5.4.1/../../../arm-none-eabi/lib/armv6-m/libg.a(lib_a-memcpy-stub.o)
 .debug_loc     0x00005568      0x3b2 /usr/lib/gcc/arm-none-eabi/5.4.1/../../../arm-none-eabi/lib/armv6-m/libg.a(lib_a-memmove.o)
 .debug_loc     0x0000591a      0x1d0 /usr/lib/gcc/arm-none-eabi/5.4.1/../../../arm-none-eabi/lib/armv6-m/libg.a(lib_a-memset.o)
 .debug_loc     0x00005aea       0x58 /usr/lib/gcc/arm-none-eabi/5.4.1/../../../arm-none-eabi/lib/armv6-m/libg.a(lib_a-sbrkr.o)
 .debug_loc     0x00005b42       0x88 /usr/lib/gcc/arm-none-eabi/5.4.1/../../../arm-none-eabi/lib/armv6-m/libg.a(lib_a-sprintf.o)
 .debug_loc     0x00005bca     0x3fae /usr/lib/gcc/arm-none-eabi/5.4.1/../../../arm-none-eabi/lib/armv6-m/libg.a(lib_a-svfprintf.o)
 .debug_loc     0x00009b78      0x1ea /usr/lib/gcc/arm-none-eabi/5.4.1/../../../arm-none-eabi/lib/armv6-m/libg.a(lib_a-tzcalc_limits.o)
 .debug_loc     0x00009d62      0x28c /usr/lib/gcc/arm-none-eabi/5.4.1/../../../arm-none-eabi/lib/armv6-m/libg.a(lib_a-tzset_r.o)
 .debug_loc     0x00009fee      0x22b /usr/lib/gcc/arm-none-eabi/5.4.1/../../../arm-none-eabi/lib/armv6-m/libg.a(lib_a-vsnprintf.o)
 .debug_loc     0x0000a219      0x1c5 /usr/lib/gcc/arm-none-eabi/5.4.1/../../../arm-none-eabi/lib/armv6-m/libg.a(lib_a-__atexit.o)
 .debug_loc     0x0000a3de      0x1cf /usr/lib/gcc/arm-none-eabi/5.4.1/../../../arm-none-eabi/lib/armv6-m/libg.a(lib_a-__call_atexit.o)
 .debug_loc     0x0000a5ad       0x35 /usr/lib/gcc/arm-none-eabi/5.4.1/../../../arm-none-eabi/lib/armv6-m/libg.a(lib_a-asctime.o)
 .debug_loc     0x0000a5e2       0x4a /usr/lib/gcc/arm-none-eabi/5.4.1/../../../arm-none-eabi/lib/armv6-m/libg.a(lib_a-asctime_r.o)
 .debug_loc     0x0000a62c     0x2aaf /usr/lib/gcc/arm-none-eabi/5.4.1/../../../arm-none-eabi/lib/armv6-m/libg.a(lib_a-dtoa.o)
 .debug_loc     0x0000d0db      0x491 /usr/lib/gcc/arm-none-eabi/5.4.1/../../../arm-none-eabi/lib/armv6-m/libg.a(lib_a-freer.o)
 .debug_loc     0x0000d56c      0x144 /usr/lib/gcc/arm-none-eabi/5.4.1/../../../arm-none-eabi/lib/armv6-m/libg.a(lib_a-getenv_r.o)
 .debug_loc     0x0000d6b0      0x25f /usr/lib/gcc/arm-none-eabi/5.4.1/../../../arm-none-eabi/lib/armv6-m/libg.a(lib_a-gmtime_r.o)
 .debug_loc     0x0000d90f      0x152 /usr/lib/gcc/arm-none-eabi/5.4.1/../../../arm-none-eabi/lib/armv6-m/libg.a(lib_a-locale.o)
 .debug_loc     0x0000da61      0x1db /usr/lib/gcc/arm-none-eabi/5.4.1/../../../arm-none-eabi/lib/armv6-m/libg.a(lib_a-memchr-stub.o)
 .debug_loc     0x0000dc3c     0x1dc9 /usr/lib/gcc/arm-none-eabi/5.4.1/../../../arm-none-eabi/lib/armv6-m/libg.a(lib_a-mprec.o)
 .debug_loc     0x0000fa05       0xfc /usr/lib/gcc/arm-none-eabi/5.4.1/../../../arm-none-eabi/lib/armv6-m/libg.a(lib_a-reent.o)
 .debug_loc     0x0000fb01       0x88 /usr/lib/gcc/arm-none-eabi/5.4.1/../../../arm-none-eabi/lib/armv6-m/libg.a(lib_a-siprintf.o)
 .debug_loc     0x0000fb89       0x6e /usr/lib/gcc/arm-none-eabi/5.4.1/../../../arm-none-eabi/lib/armv6-m/libg.a(lib_a-siscanf.o)
 .debug_loc     0x0000fbf7      0x302 /usr/lib/gcc/arm-none-eabi/5.4.1/../../../arm-none-eabi/lib/armv6-m/libg.a(lib_a-stdio.o)
 .debug_loc     0x0000fef9       0x21 /usr/lib/gcc/arm-none-eabi/5.4.1/../../../arm-none-eabi/lib/armv6-m/libg.a(lib_a-strcpy.o)
 .debug_loc     0x0000ff1a       0x8f /usr/lib/gcc/arm-none-eabi/5.4.1/../../../arm-none-eabi/lib/armv6-m/libg.a(lib_a-strlen-stub.o)
 .debug_loc     0x0000ffa9      0x105 /usr/lib/gcc/arm-none-eabi/5.4.1/../../../arm-none-eabi/lib/armv6-m/libg.a(lib_a-strncmp.o)
 .debug_loc     0x000100ae      0x49d /usr/lib/gcc/arm-none-eabi/5.4.1/../../../arm-none-eabi/lib/armv6-m/libg.a(lib_a-strtoul.o)
 .debug_loc     0x0001054b     0x1c5c /usr/lib/gcc/arm-none-eabi/5.4.1/../../../arm-none-eabi/lib/armv6-m/libg.a(lib_a-svfiprintf.o)
 .debug_loc     0x000121a7     0x169b /usr/lib/gcc/arm-none-eabi/5.4.1/../../../arm-none-eabi/lib/armv6-m/libg.a(lib_a-svfiscanf.o)
 .debug_loc     0x00013842      0x2f9 /usr/lib/gcc/arm-none-eabi/5.4.1/../../../arm-none-eabi/lib/armv6-m/libg.a(lib_a-ungetc.o)
 .debug_loc     0x00013b3b       0xb0 /usr/lib/gcc/arm-none-eabi/5.4.1/../../../arm-none-eabi/lib/armv6-m/libg.a(lib_a-writer.o)
 .debug_loc     0x00013beb      0x262 /usr/lib/gcc/arm-none-eabi/5.4.1/../../../arm-none-eabi/lib/armv6-m/libg.a(lib_a-callocr.o)
 .debug_loc     0x00013e4d       0x58 /usr/lib/gcc/arm-none-eabi/5.4.1/../../../arm-none-eabi/lib/armv6-m/libg.a(lib_a-closer.o)
 .debug_loc     0x00013ea5      0x2ec /usr/lib/gcc/arm-none-eabi/5.4.1/../../../arm-none-eabi/lib/armv6-m/libg.a(lib_a-fflush.o)
 .debug_loc     0x00014191      0x323 /usr/lib/gcc/arm-none-eabi/5.4.1/../../../arm-none-eabi/lib/armv6-m/libg.a(lib_a-findfp.o)
 .debug_loc     0x000144b4      0x19f /usr/lib/gcc/arm-none-eabi/5.4.1/../../../arm-none-eabi/lib/armv6-m/libg.a(lib_a-fwalk.o)
 .debug_loc     0x00014653       0x2c /usr/lib/gcc/arm-none-eabi/5.4.1/../../../arm-none-eabi/lib/armv6-m/libg.a(lib_a-iswspace.o)
 .debug_loc     0x0001467f       0xb0 /usr/lib/gcc/arm-none-eabi/5.4.1/../../../arm-none-eabi/lib/armv6-m/libg.a(lib_a-lseekr.o)
 .debug_loc     0x0001472f      0x28a /usr/lib/gcc/arm-none-eabi/5.4.1/../../../arm-none-eabi/lib/armv6-m/libg.a(lib_a-mbrtowc.o)
 .debug_loc     0x000149b9      0x1a5 /usr/lib/gcc/arm-none-eabi/5.4.1/../../../arm-none-eabi/lib/armv6-m/libg.a(lib_a-mbtowc_r.o)
 .debug_loc     0x00014b5e       0xb0 /usr/lib/gcc/arm-none-eabi/5.4.1/../../../arm-none-eabi/lib/armv6-m/libg.a(lib_a-readr.o)
 .debug_loc     0x00014c0e     0x13dd /usr/lib/gcc/arm-none-eabi/5.4.1/../../../arm-none-eabi/lib/armv6-m/libg.a(lib_a-reallocr.o)
 .debug_loc     0x00015feb      0x1f7 /usr/lib/gcc/arm-none-eabi/5.4.1/../../../arm-none-eabi/lib/armv6-m/libg.a(lib_a-sccl.o)
 .debug_loc     0x000161e2      0x3e9 /usr/lib/gcc/arm-none-eabi/5.4.1/../../../arm-none-eabi/lib/armv6-m/libg.a(lib_a-strtol.o)
 .debug_loc     0x000165cb      0x3bc /usr/lib/gcc/arm-none-eabi/5.4.1/../../../arm-none-eabi/lib/armv6-m/libg.a(lib_a-strtoll_r.o)
 .debug_loc     0x00016987      0x39f /usr/lib/gcc/arm-none-eabi/5.4.1/../../../arm-none-eabi/lib/armv6-m/libg.a(lib_a-strtoull_r.o)
 .debug_loc     0x00016d26      0x175 /usr/lib/gcc/arm-none-eabi/5.4.1/../../../arm-none-eabi/lib/armv6-m/libg.a(lib_a-fclose.o)
 .debug_loc     0x00016e9b      0x13e /usr/lib/gcc/arm-none-eabi/5.4.1/armv6-m/libgcc.a(_muldi3.o)
 .debug_loc     0x00016fd9      0x38d /usr/lib/gcc/arm-none-eabi/5.4.1/armv6-m/libgcc.a(_udivmoddi4.o)
 .debug_loc     0x00017366     0x1809 /usr/lib/gcc/arm-none-eabi/5.4.1/armv6-m/libgcc.a(adddf3.o)
 .debug_loc     0x00018b6f     0x18a6 /usr/lib/gcc/arm-none-eabi/5.4.1/armv6-m/libgcc.a(subdf3.o)
 .debug_loc     0x0001a415       0xb5 /usr/lib/gcc/arm-none-eabi/5.4.1/armv6-m/libgcc.a(unorddf2.o)
 .debug_loc     0x0001a4ca      0x10a /usr/lib/gcc/arm-none-eabi/5.4.1/armv6-m/libgcc.a(fixdfsi.o)
 .debug_loc     0x0001a5d4      0x243 /usr/lib/gcc/arm-none-eabi/5.4.1/armv6-m/libgcc.a(floatsidf.o)
 .debug_loc     0x0001a817      0x1ef /usr/lib/gcc/arm-none-eabi/5.4.1/armv6-m/libgcc.a(floatunsidf.o)
 .debug_loc     0x0001aa06       0x21 /usr/lib/gcc/arm-none-eabi/5.4.1/../../../arm-none-eabi/lib/armv6-m/libnosys.a(close.o)
 .debug_loc     0x0001aa27       0x42 /usr/lib/gcc/arm-none-eabi/5.4.1/../../../arm-none-eabi/lib/armv6-m/libnosys.a(lseek.o)
 .debug_loc     0x0001aa69       0x42 /usr/lib/gcc/arm-none-eabi/5.4.1/../../../arm-none-eabi/lib/armv6-m/libnosys.a(read.o)
 .debug_loc     0x0001aaab       0x43 /usr/lib/gcc/arm-none-eabi/5.4.1/../../../arm-none-eabi/lib/armv6-m/libnosys.a(sbrk.o)
 .debug_loc     0x0001aaee       0x42 /usr/lib/gcc/arm-none-eabi/5.4.1/../../../arm-none-eabi/lib/armv6-m/libnosys.a(write.o)

.stab           0x00000000       0x6c
 .stab          0x00000000       0x24 /usr/lib/gcc/arm-none-eabi/5.4.1/../../../arm-none-eabi/lib/armv6-m/libnosys.a(close.o)
 .stab          0x00000024       0x18 /usr/lib/gcc/arm-none-eabi/5.4.1/../../../arm-none-eabi/lib/armv6-m/libnosys.a(lseek.o)
                                 0x24 (size before relaxing)
 .stab          0x0000003c       0x18 /usr/lib/gcc/arm-none-eabi/5.4.1/../../../arm-none-eabi/lib/armv6-m/libnosys.a(read.o)
                                 0x24 (size before relaxing)
 .stab          0x00000054       0x18 /usr/lib/gcc/arm-none-eabi/5.4.1/../../../arm-none-eabi/lib/armv6-m/libnosys.a(write.o)
                                 0x24 (size before relaxing)

.stabstr        0x00000000       0xdf
 .stabstr       0x00000000       0xdf /usr/lib/gcc/arm-none-eabi/5.4.1/../../../arm-none-eabi/lib/armv6-m/libnosys.a(close.o)
